ctarget：     文件格式 elf64-x86-64


Disassembly of section .init:

0000000000400c68 <_init>:
  400c68:	48 83 ec 08          	sub    $0x8,%rsp
  400c6c:	48 8b 05 85 43 20 00 	mov    0x204385(%rip),%rax        # 604ff8 <_DYNAMIC+0x1e0>
  400c73:	48 85 c0             	test   %rax,%rax
  400c76:	74 05                	je     400c7d <_init+0x15>
  400c78:	e8 43 02 00 00       	callq  400ec0 <socket@plt+0x10>
  400c7d:	48 83 c4 08          	add    $0x8,%rsp
  400c81:	c3                   	retq   

Disassembly of section .plt:

0000000000400c90 <strcasecmp@plt-0x10>:
  400c90:	ff 35 72 43 20 00    	pushq  0x204372(%rip)        # 605008 <_GLOBAL_OFFSET_TABLE_+0x8>
  400c96:	ff 25 74 43 20 00    	jmpq   *0x204374(%rip)        # 605010 <_GLOBAL_OFFSET_TABLE_+0x10>
  400c9c:	0f 1f 40 00          	nopl   0x0(%rax)

0000000000400ca0 <strcasecmp@plt>:
  400ca0:	ff 25 72 43 20 00    	jmpq   *0x204372(%rip)        # 605018 <_GLOBAL_OFFSET_TABLE_+0x18>
  400ca6:	68 00 00 00 00       	pushq  $0x0
  400cab:	e9 e0 ff ff ff       	jmpq   400c90 <_init+0x28>

0000000000400cb0 <__errno_location@plt>:
  400cb0:	ff 25 6a 43 20 00    	jmpq   *0x20436a(%rip)        # 605020 <_GLOBAL_OFFSET_TABLE_+0x20>
  400cb6:	68 01 00 00 00       	pushq  $0x1
  400cbb:	e9 d0 ff ff ff       	jmpq   400c90 <_init+0x28>

0000000000400cc0 <srandom@plt>:
  400cc0:	ff 25 62 43 20 00    	jmpq   *0x204362(%rip)        # 605028 <_GLOBAL_OFFSET_TABLE_+0x28>
  400cc6:	68 02 00 00 00       	pushq  $0x2
  400ccb:	e9 c0 ff ff ff       	jmpq   400c90 <_init+0x28>

0000000000400cd0 <strncmp@plt>:
  400cd0:	ff 25 5a 43 20 00    	jmpq   *0x20435a(%rip)        # 605030 <_GLOBAL_OFFSET_TABLE_+0x30>
  400cd6:	68 03 00 00 00       	pushq  $0x3
  400cdb:	e9 b0 ff ff ff       	jmpq   400c90 <_init+0x28>

0000000000400ce0 <strcpy@plt>:
  400ce0:	ff 25 52 43 20 00    	jmpq   *0x204352(%rip)        # 605038 <_GLOBAL_OFFSET_TABLE_+0x38>
  400ce6:	68 04 00 00 00       	pushq  $0x4
  400ceb:	e9 a0 ff ff ff       	jmpq   400c90 <_init+0x28>

0000000000400cf0 <puts@plt>:
  400cf0:	ff 25 4a 43 20 00    	jmpq   *0x20434a(%rip)        # 605040 <_GLOBAL_OFFSET_TABLE_+0x40>
  400cf6:	68 05 00 00 00       	pushq  $0x5
  400cfb:	e9 90 ff ff ff       	jmpq   400c90 <_init+0x28>

0000000000400d00 <write@plt>:
  400d00:	ff 25 42 43 20 00    	jmpq   *0x204342(%rip)        # 605048 <_GLOBAL_OFFSET_TABLE_+0x48>
  400d06:	68 06 00 00 00       	pushq  $0x6
  400d0b:	e9 80 ff ff ff       	jmpq   400c90 <_init+0x28>

0000000000400d10 <__stack_chk_fail@plt>:
  400d10:	ff 25 3a 43 20 00    	jmpq   *0x20433a(%rip)        # 605050 <_GLOBAL_OFFSET_TABLE_+0x50>
  400d16:	68 07 00 00 00       	pushq  $0x7
  400d1b:	e9 70 ff ff ff       	jmpq   400c90 <_init+0x28>

0000000000400d20 <mmap@plt>:
  400d20:	ff 25 32 43 20 00    	jmpq   *0x204332(%rip)        # 605058 <_GLOBAL_OFFSET_TABLE_+0x58>
  400d26:	68 08 00 00 00       	pushq  $0x8
  400d2b:	e9 60 ff ff ff       	jmpq   400c90 <_init+0x28>

0000000000400d30 <memset@plt>:
  400d30:	ff 25 2a 43 20 00    	jmpq   *0x20432a(%rip)        # 605060 <_GLOBAL_OFFSET_TABLE_+0x60>
  400d36:	68 09 00 00 00       	pushq  $0x9
  400d3b:	e9 50 ff ff ff       	jmpq   400c90 <_init+0x28>

0000000000400d40 <alarm@plt>:
  400d40:	ff 25 22 43 20 00    	jmpq   *0x204322(%rip)        # 605068 <_GLOBAL_OFFSET_TABLE_+0x68>
  400d46:	68 0a 00 00 00       	pushq  $0xa
  400d4b:	e9 40 ff ff ff       	jmpq   400c90 <_init+0x28>

0000000000400d50 <close@plt>:
  400d50:	ff 25 1a 43 20 00    	jmpq   *0x20431a(%rip)        # 605070 <_GLOBAL_OFFSET_TABLE_+0x70>
  400d56:	68 0b 00 00 00       	pushq  $0xb
  400d5b:	e9 30 ff ff ff       	jmpq   400c90 <_init+0x28>

0000000000400d60 <read@plt>:
  400d60:	ff 25 12 43 20 00    	jmpq   *0x204312(%rip)        # 605078 <_GLOBAL_OFFSET_TABLE_+0x78>
  400d66:	68 0c 00 00 00       	pushq  $0xc
  400d6b:	e9 20 ff ff ff       	jmpq   400c90 <_init+0x28>

0000000000400d70 <__libc_start_main@plt>:
  400d70:	ff 25 0a 43 20 00    	jmpq   *0x20430a(%rip)        # 605080 <_GLOBAL_OFFSET_TABLE_+0x80>
  400d76:	68 0d 00 00 00       	pushq  $0xd
  400d7b:	e9 10 ff ff ff       	jmpq   400c90 <_init+0x28>

0000000000400d80 <signal@plt>:
  400d80:	ff 25 02 43 20 00    	jmpq   *0x204302(%rip)        # 605088 <_GLOBAL_OFFSET_TABLE_+0x88>
  400d86:	68 0e 00 00 00       	pushq  $0xe
  400d8b:	e9 00 ff ff ff       	jmpq   400c90 <_init+0x28>

0000000000400d90 <gethostbyname@plt>:
  400d90:	ff 25 fa 42 20 00    	jmpq   *0x2042fa(%rip)        # 605090 <_GLOBAL_OFFSET_TABLE_+0x90>
  400d96:	68 0f 00 00 00       	pushq  $0xf
  400d9b:	e9 f0 fe ff ff       	jmpq   400c90 <_init+0x28>

0000000000400da0 <__memmove_chk@plt>:
  400da0:	ff 25 f2 42 20 00    	jmpq   *0x2042f2(%rip)        # 605098 <_GLOBAL_OFFSET_TABLE_+0x98>
  400da6:	68 10 00 00 00       	pushq  $0x10
  400dab:	e9 e0 fe ff ff       	jmpq   400c90 <_init+0x28>

0000000000400db0 <strtol@plt>:
  400db0:	ff 25 ea 42 20 00    	jmpq   *0x2042ea(%rip)        # 6050a0 <_GLOBAL_OFFSET_TABLE_+0xa0>
  400db6:	68 11 00 00 00       	pushq  $0x11
  400dbb:	e9 d0 fe ff ff       	jmpq   400c90 <_init+0x28>

0000000000400dc0 <memcpy@plt>:
  400dc0:	ff 25 e2 42 20 00    	jmpq   *0x2042e2(%rip)        # 6050a8 <_GLOBAL_OFFSET_TABLE_+0xa8>
  400dc6:	68 12 00 00 00       	pushq  $0x12
  400dcb:	e9 c0 fe ff ff       	jmpq   400c90 <_init+0x28>

0000000000400dd0 <time@plt>:
  400dd0:	ff 25 da 42 20 00    	jmpq   *0x2042da(%rip)        # 6050b0 <_GLOBAL_OFFSET_TABLE_+0xb0>
  400dd6:	68 13 00 00 00       	pushq  $0x13
  400ddb:	e9 b0 fe ff ff       	jmpq   400c90 <_init+0x28>

0000000000400de0 <random@plt>:
  400de0:	ff 25 d2 42 20 00    	jmpq   *0x2042d2(%rip)        # 6050b8 <_GLOBAL_OFFSET_TABLE_+0xb8>
  400de6:	68 14 00 00 00       	pushq  $0x14
  400deb:	e9 a0 fe ff ff       	jmpq   400c90 <_init+0x28>

0000000000400df0 <_IO_getc@plt>:
  400df0:	ff 25 ca 42 20 00    	jmpq   *0x2042ca(%rip)        # 6050c0 <_GLOBAL_OFFSET_TABLE_+0xc0>
  400df6:	68 15 00 00 00       	pushq  $0x15
  400dfb:	e9 90 fe ff ff       	jmpq   400c90 <_init+0x28>

0000000000400e00 <__isoc99_sscanf@plt>:
  400e00:	ff 25 c2 42 20 00    	jmpq   *0x2042c2(%rip)        # 6050c8 <_GLOBAL_OFFSET_TABLE_+0xc8>
  400e06:	68 16 00 00 00       	pushq  $0x16
  400e0b:	e9 80 fe ff ff       	jmpq   400c90 <_init+0x28>

0000000000400e10 <munmap@plt>:
  400e10:	ff 25 ba 42 20 00    	jmpq   *0x2042ba(%rip)        # 6050d0 <_GLOBAL_OFFSET_TABLE_+0xd0>
  400e16:	68 17 00 00 00       	pushq  $0x17
  400e1b:	e9 70 fe ff ff       	jmpq   400c90 <_init+0x28>

0000000000400e20 <__printf_chk@plt>:
  400e20:	ff 25 b2 42 20 00    	jmpq   *0x2042b2(%rip)        # 6050d8 <_GLOBAL_OFFSET_TABLE_+0xd8>
  400e26:	68 18 00 00 00       	pushq  $0x18
  400e2b:	e9 60 fe ff ff       	jmpq   400c90 <_init+0x28>

0000000000400e30 <fopen@plt>:
  400e30:	ff 25 aa 42 20 00    	jmpq   *0x2042aa(%rip)        # 6050e0 <_GLOBAL_OFFSET_TABLE_+0xe0>
  400e36:	68 19 00 00 00       	pushq  $0x19
  400e3b:	e9 50 fe ff ff       	jmpq   400c90 <_init+0x28>

0000000000400e40 <getopt@plt>:
  400e40:	ff 25 a2 42 20 00    	jmpq   *0x2042a2(%rip)        # 6050e8 <_GLOBAL_OFFSET_TABLE_+0xe8>
  400e46:	68 1a 00 00 00       	pushq  $0x1a
  400e4b:	e9 40 fe ff ff       	jmpq   400c90 <_init+0x28>

0000000000400e50 <strtoul@plt>:
  400e50:	ff 25 9a 42 20 00    	jmpq   *0x20429a(%rip)        # 6050f0 <_GLOBAL_OFFSET_TABLE_+0xf0>
  400e56:	68 1b 00 00 00       	pushq  $0x1b
  400e5b:	e9 30 fe ff ff       	jmpq   400c90 <_init+0x28>

0000000000400e60 <gethostname@plt>:
  400e60:	ff 25 92 42 20 00    	jmpq   *0x204292(%rip)        # 6050f8 <_GLOBAL_OFFSET_TABLE_+0xf8>
  400e66:	68 1c 00 00 00       	pushq  $0x1c
  400e6b:	e9 20 fe ff ff       	jmpq   400c90 <_init+0x28>

0000000000400e70 <exit@plt>:
  400e70:	ff 25 8a 42 20 00    	jmpq   *0x20428a(%rip)        # 605100 <_GLOBAL_OFFSET_TABLE_+0x100>
  400e76:	68 1d 00 00 00       	pushq  $0x1d
  400e7b:	e9 10 fe ff ff       	jmpq   400c90 <_init+0x28>

0000000000400e80 <connect@plt>:
  400e80:	ff 25 82 42 20 00    	jmpq   *0x204282(%rip)        # 605108 <_GLOBAL_OFFSET_TABLE_+0x108>
  400e86:	68 1e 00 00 00       	pushq  $0x1e
  400e8b:	e9 00 fe ff ff       	jmpq   400c90 <_init+0x28>

0000000000400e90 <__fprintf_chk@plt>:
  400e90:	ff 25 7a 42 20 00    	jmpq   *0x20427a(%rip)        # 605110 <_GLOBAL_OFFSET_TABLE_+0x110>
  400e96:	68 1f 00 00 00       	pushq  $0x1f
  400e9b:	e9 f0 fd ff ff       	jmpq   400c90 <_init+0x28>

0000000000400ea0 <__sprintf_chk@plt>:
  400ea0:	ff 25 72 42 20 00    	jmpq   *0x204272(%rip)        # 605118 <_GLOBAL_OFFSET_TABLE_+0x118>
  400ea6:	68 20 00 00 00       	pushq  $0x20
  400eab:	e9 e0 fd ff ff       	jmpq   400c90 <_init+0x28>

0000000000400eb0 <socket@plt>:
  400eb0:	ff 25 6a 42 20 00    	jmpq   *0x20426a(%rip)        # 605120 <_GLOBAL_OFFSET_TABLE_+0x120>
  400eb6:	68 21 00 00 00       	pushq  $0x21
  400ebb:	e9 d0 fd ff ff       	jmpq   400c90 <_init+0x28>

Disassembly of section .plt.got:

0000000000400ec0 <.plt.got>:
  400ec0:	ff 25 32 41 20 00    	jmpq   *0x204132(%rip)        # 604ff8 <_DYNAMIC+0x1e0>
  400ec6:	66 90                	xchg   %ax,%ax

Disassembly of section .text:

0000000000400ed0 <_start>:
  400ed0:	31 ed                	xor    %ebp,%ebp
  400ed2:	49 89 d1             	mov    %rdx,%r9
  400ed5:	5e                   	pop    %rsi
  400ed6:	48 89 e2             	mov    %rsp,%rdx
  400ed9:	48 83 e4 f0          	and    $0xfffffffffffffff0,%rsp
  400edd:	50                   	push   %rax
  400ede:	54                   	push   %rsp
  400edf:	49 c7 c0 10 2f 40 00 	mov    $0x402f10,%r8
  400ee6:	48 c7 c1 a0 2e 40 00 	mov    $0x402ea0,%rcx
  400eed:	48 c7 c7 d5 11 40 00 	mov    $0x4011d5,%rdi
  400ef4:	e8 77 fe ff ff       	callq  400d70 <__libc_start_main@plt>
  400ef9:	f4                   	hlt    
  400efa:	66 0f 1f 44 00 00    	nopw   0x0(%rax,%rax,1)

0000000000400f00 <deregister_tm_clones>:
  400f00:	b8 b7 54 60 00       	mov    $0x6054b7,%eax
  400f05:	55                   	push   %rbp
  400f06:	48 2d b0 54 60 00    	sub    $0x6054b0,%rax
  400f0c:	48 83 f8 0e          	cmp    $0xe,%rax
  400f10:	48 89 e5             	mov    %rsp,%rbp
  400f13:	76 1b                	jbe    400f30 <deregister_tm_clones+0x30>
  400f15:	b8 00 00 00 00       	mov    $0x0,%eax
  400f1a:	48 85 c0             	test   %rax,%rax
  400f1d:	74 11                	je     400f30 <deregister_tm_clones+0x30>
  400f1f:	5d                   	pop    %rbp
  400f20:	bf b0 54 60 00       	mov    $0x6054b0,%edi
  400f25:	ff e0                	jmpq   *%rax
  400f27:	66 0f 1f 84 00 00 00 	nopw   0x0(%rax,%rax,1)
  400f2e:	00 00 
  400f30:	5d                   	pop    %rbp
  400f31:	c3                   	retq   
  400f32:	0f 1f 40 00          	nopl   0x0(%rax)
  400f36:	66 2e 0f 1f 84 00 00 	nopw   %cs:0x0(%rax,%rax,1)
  400f3d:	00 00 00 

0000000000400f40 <register_tm_clones>:
  400f40:	be b0 54 60 00       	mov    $0x6054b0,%esi
  400f45:	55                   	push   %rbp
  400f46:	48 81 ee b0 54 60 00 	sub    $0x6054b0,%rsi
  400f4d:	48 c1 fe 03          	sar    $0x3,%rsi
  400f51:	48 89 e5             	mov    %rsp,%rbp
  400f54:	48 89 f0             	mov    %rsi,%rax
  400f57:	48 c1 e8 3f          	shr    $0x3f,%rax
  400f5b:	48 01 c6             	add    %rax,%rsi
  400f5e:	48 d1 fe             	sar    %rsi
  400f61:	74 15                	je     400f78 <register_tm_clones+0x38>
  400f63:	b8 00 00 00 00       	mov    $0x0,%eax
  400f68:	48 85 c0             	test   %rax,%rax
  400f6b:	74 0b                	je     400f78 <register_tm_clones+0x38>
  400f6d:	5d                   	pop    %rbp
  400f6e:	bf b0 54 60 00       	mov    $0x6054b0,%edi
  400f73:	ff e0                	jmpq   *%rax
  400f75:	0f 1f 00             	nopl   (%rax)
  400f78:	5d                   	pop    %rbp
  400f79:	c3                   	retq   
  400f7a:	66 0f 1f 44 00 00    	nopw   0x0(%rax,%rax,1)

0000000000400f80 <__do_global_dtors_aux>:
  400f80:	80 3d 61 45 20 00 00 	cmpb   $0x0,0x204561(%rip)        # 6054e8 <completed.7585>
  400f87:	75 11                	jne    400f9a <__do_global_dtors_aux+0x1a>
  400f89:	55                   	push   %rbp
  400f8a:	48 89 e5             	mov    %rsp,%rbp
  400f8d:	e8 6e ff ff ff       	callq  400f00 <deregister_tm_clones>
  400f92:	5d                   	pop    %rbp
  400f93:	c6 05 4e 45 20 00 01 	movb   $0x1,0x20454e(%rip)        # 6054e8 <completed.7585>
  400f9a:	f3 c3                	repz retq 
  400f9c:	0f 1f 40 00          	nopl   0x0(%rax)

0000000000400fa0 <frame_dummy>:
  400fa0:	bf 10 4e 60 00       	mov    $0x604e10,%edi
  400fa5:	48 83 3f 00          	cmpq   $0x0,(%rdi)
  400fa9:	75 05                	jne    400fb0 <frame_dummy+0x10>
  400fab:	eb 93                	jmp    400f40 <register_tm_clones>
  400fad:	0f 1f 00             	nopl   (%rax)
  400fb0:	b8 00 00 00 00       	mov    $0x0,%eax
  400fb5:	48 85 c0             	test   %rax,%rax
  400fb8:	74 f1                	je     400fab <frame_dummy+0xb>
  400fba:	55                   	push   %rbp
  400fbb:	48 89 e5             	mov    %rsp,%rbp
  400fbe:	ff d0                	callq  *%rax
  400fc0:	5d                   	pop    %rbp
  400fc1:	e9 7a ff ff ff       	jmpq   400f40 <register_tm_clones>

0000000000400fc6 <usage>:
  400fc6:	48 83 ec 08          	sub    $0x8,%rsp
  400fca:	48 89 fa             	mov    %rdi,%rdx
  400fcd:	83 3d 54 45 20 00 00 	cmpl   $0x0,0x204554(%rip)        # 605528 <is_checker>
  400fd4:	74 3e                	je     401014 <usage+0x4e>
  400fd6:	be 28 2f 40 00       	mov    $0x402f28,%esi
  400fdb:	bf 01 00 00 00       	mov    $0x1,%edi
  400fe0:	b8 00 00 00 00       	mov    $0x0,%eax
  400fe5:	e8 36 fe ff ff       	callq  400e20 <__printf_chk@plt>
  400fea:	bf 60 2f 40 00       	mov    $0x402f60,%edi
  400fef:	e8 fc fc ff ff       	callq  400cf0 <puts@plt>
  400ff4:	bf d8 30 40 00       	mov    $0x4030d8,%edi
  400ff9:	e8 f2 fc ff ff       	callq  400cf0 <puts@plt>
  400ffe:	bf 88 2f 40 00       	mov    $0x402f88,%edi
  401003:	e8 e8 fc ff ff       	callq  400cf0 <puts@plt>
  401008:	bf f2 30 40 00       	mov    $0x4030f2,%edi
  40100d:	e8 de fc ff ff       	callq  400cf0 <puts@plt>
  401012:	eb 32                	jmp    401046 <usage+0x80>
  401014:	be 0e 31 40 00       	mov    $0x40310e,%esi
  401019:	bf 01 00 00 00       	mov    $0x1,%edi
  40101e:	b8 00 00 00 00       	mov    $0x0,%eax
  401023:	e8 f8 fd ff ff       	callq  400e20 <__printf_chk@plt>
  401028:	bf b0 2f 40 00       	mov    $0x402fb0,%edi
  40102d:	e8 be fc ff ff       	callq  400cf0 <puts@plt>
  401032:	bf d8 2f 40 00       	mov    $0x402fd8,%edi
  401037:	e8 b4 fc ff ff       	callq  400cf0 <puts@plt>
  40103c:	bf 2c 31 40 00       	mov    $0x40312c,%edi
  401041:	e8 aa fc ff ff       	callq  400cf0 <puts@plt>
  401046:	bf 00 00 00 00       	mov    $0x0,%edi
  40104b:	e8 20 fe ff ff       	callq  400e70 <exit@plt>

0000000000401050 <initialize_target>:
  401050:	55                   	push   %rbp
  401051:	53                   	push   %rbx
  401052:	48 81 ec 18 21 00 00 	sub    $0x2118,%rsp
  401059:	89 f5                	mov    %esi,%ebp
  40105b:	64 48 8b 04 25 28 00 	mov    %fs:0x28,%rax
  401062:	00 00 
  401064:	48 89 84 24 08 21 00 	mov    %rax,0x2108(%rsp)
  40106b:	00 
  40106c:	31 c0                	xor    %eax,%eax
  40106e:	89 3d a4 44 20 00    	mov    %edi,0x2044a4(%rip)        # 605518 <check_level>
  401074:	8b 3d ee 40 20 00    	mov    0x2040ee(%rip),%edi        # 605168 <target_id>
  40107a:	e8 fd 1d 00 00       	callq  402e7c <gencookie>
  40107f:	89 05 9f 44 20 00    	mov    %eax,0x20449f(%rip)        # 605524 <cookie>
  401085:	89 c7                	mov    %eax,%edi
  401087:	e8 f0 1d 00 00       	callq  402e7c <gencookie>
  40108c:	89 05 8e 44 20 00    	mov    %eax,0x20448e(%rip)        # 605520 <authkey>
  401092:	8b 05 d0 40 20 00    	mov    0x2040d0(%rip),%eax        # 605168 <target_id>
  401098:	8d 78 01             	lea    0x1(%rax),%edi
  40109b:	e8 20 fc ff ff       	callq  400cc0 <srandom@plt>
  4010a0:	e8 3b fd ff ff       	callq  400de0 <random@plt>
  4010a5:	89 c7                	mov    %eax,%edi
  4010a7:	e8 03 03 00 00       	callq  4013af <scramble>
  4010ac:	89 c3                	mov    %eax,%ebx
  4010ae:	85 ed                	test   %ebp,%ebp
  4010b0:	74 18                	je     4010ca <initialize_target+0x7a>
  4010b2:	bf 00 00 00 00       	mov    $0x0,%edi
  4010b7:	e8 14 fd ff ff       	callq  400dd0 <time@plt>
  4010bc:	89 c7                	mov    %eax,%edi
  4010be:	e8 fd fb ff ff       	callq  400cc0 <srandom@plt>
  4010c3:	e8 18 fd ff ff       	callq  400de0 <random@plt>
  4010c8:	eb 05                	jmp    4010cf <initialize_target+0x7f>
  4010ca:	b8 00 00 00 00       	mov    $0x0,%eax
  4010cf:	01 c3                	add    %eax,%ebx
  4010d1:	0f b7 db             	movzwl %bx,%ebx
  4010d4:	8d 04 dd 00 01 00 00 	lea    0x100(,%rbx,8),%eax
  4010db:	89 c0                	mov    %eax,%eax
  4010dd:	48 89 05 bc 43 20 00 	mov    %rax,0x2043bc(%rip)        # 6054a0 <buf_offset>
  4010e4:	c6 05 5d 50 20 00 63 	movb   $0x63,0x20505d(%rip)        # 606148 <target_prefix>
  4010eb:	83 3d b6 43 20 00 00 	cmpl   $0x0,0x2043b6(%rip)        # 6054a8 <notify>
  4010f2:	0f 84 bb 00 00 00    	je     4011b3 <initialize_target+0x163>
  4010f8:	83 3d 29 44 20 00 00 	cmpl   $0x0,0x204429(%rip)        # 605528 <is_checker>
  4010ff:	0f 85 ae 00 00 00    	jne    4011b3 <initialize_target+0x163>
  401105:	be 00 01 00 00       	mov    $0x100,%esi
  40110a:	48 89 e7             	mov    %rsp,%rdi
  40110d:	e8 4e fd ff ff       	callq  400e60 <gethostname@plt>
  401112:	85 c0                	test   %eax,%eax
  401114:	74 25                	je     40113b <initialize_target+0xeb>
  401116:	bf 08 30 40 00       	mov    $0x403008,%edi
  40111b:	e8 d0 fb ff ff       	callq  400cf0 <puts@plt>
  401120:	bf 08 00 00 00       	mov    $0x8,%edi
  401125:	e8 46 fd ff ff       	callq  400e70 <exit@plt>
  40112a:	48 89 e6             	mov    %rsp,%rsi
  40112d:	e8 6e fb ff ff       	callq  400ca0 <strcasecmp@plt>
  401132:	85 c0                	test   %eax,%eax
  401134:	74 21                	je     401157 <initialize_target+0x107>
  401136:	83 c3 01             	add    $0x1,%ebx
  401139:	eb 05                	jmp    401140 <initialize_target+0xf0>
  40113b:	bb 00 00 00 00       	mov    $0x0,%ebx
  401140:	48 63 c3             	movslq %ebx,%rax
  401143:	48 8b 3c c5 80 51 60 	mov    0x605180(,%rax,8),%rdi
  40114a:	00 
  40114b:	48 85 ff             	test   %rdi,%rdi
  40114e:	75 da                	jne    40112a <initialize_target+0xda>
  401150:	b8 00 00 00 00       	mov    $0x0,%eax
  401155:	eb 05                	jmp    40115c <initialize_target+0x10c>
  401157:	b8 01 00 00 00       	mov    $0x1,%eax
  40115c:	85 c0                	test   %eax,%eax
  40115e:	75 1c                	jne    40117c <initialize_target+0x12c>
  401160:	48 89 e2             	mov    %rsp,%rdx
  401163:	be 40 30 40 00       	mov    $0x403040,%esi
  401168:	bf 01 00 00 00       	mov    $0x1,%edi
  40116d:	e8 ae fc ff ff       	callq  400e20 <__printf_chk@plt>
  401172:	bf 08 00 00 00       	mov    $0x8,%edi
  401177:	e8 f4 fc ff ff       	callq  400e70 <exit@plt>
  40117c:	48 8d bc 24 00 01 00 	lea    0x100(%rsp),%rdi
  401183:	00 
  401184:	e8 5d 1a 00 00       	callq  402be6 <init_driver>
  401189:	85 c0                	test   %eax,%eax
  40118b:	79 26                	jns    4011b3 <initialize_target+0x163>
  40118d:	48 8d 94 24 00 01 00 	lea    0x100(%rsp),%rdx
  401194:	00 
  401195:	be 80 30 40 00       	mov    $0x403080,%esi
  40119a:	bf 01 00 00 00       	mov    $0x1,%edi
  40119f:	b8 00 00 00 00       	mov    $0x0,%eax
  4011a4:	e8 77 fc ff ff       	callq  400e20 <__printf_chk@plt>
  4011a9:	bf 08 00 00 00       	mov    $0x8,%edi
  4011ae:	e8 bd fc ff ff       	callq  400e70 <exit@plt>
  4011b3:	48 8b 84 24 08 21 00 	mov    0x2108(%rsp),%rax
  4011ba:	00 
  4011bb:	64 48 33 04 25 28 00 	xor    %fs:0x28,%rax
  4011c2:	00 00 
  4011c4:	74 05                	je     4011cb <initialize_target+0x17b>
  4011c6:	e8 45 fb ff ff       	callq  400d10 <__stack_chk_fail@plt>
  4011cb:	48 81 c4 18 21 00 00 	add    $0x2118,%rsp
  4011d2:	5b                   	pop    %rbx
  4011d3:	5d                   	pop    %rbp
  4011d4:	c3                   	retq   

00000000004011d5 <main>:
  4011d5:	41 56                	push   %r14
  4011d7:	41 55                	push   %r13
  4011d9:	41 54                	push   %r12
  4011db:	55                   	push   %rbp
  4011dc:	53                   	push   %rbx
  4011dd:	41 89 fc             	mov    %edi,%r12d
  4011e0:	48 89 f3             	mov    %rsi,%rbx
  4011e3:	be 06 1f 40 00       	mov    $0x401f06,%esi
  4011e8:	bf 0b 00 00 00       	mov    $0xb,%edi
  4011ed:	e8 8e fb ff ff       	callq  400d80 <signal@plt>
  4011f2:	be b8 1e 40 00       	mov    $0x401eb8,%esi
  4011f7:	bf 07 00 00 00       	mov    $0x7,%edi
  4011fc:	e8 7f fb ff ff       	callq  400d80 <signal@plt>
  401201:	be 54 1f 40 00       	mov    $0x401f54,%esi
  401206:	bf 04 00 00 00       	mov    $0x4,%edi
  40120b:	e8 70 fb ff ff       	callq  400d80 <signal@plt>
  401210:	83 3d 11 43 20 00 00 	cmpl   $0x0,0x204311(%rip)        # 605528 <is_checker>
  401217:	74 20                	je     401239 <main+0x64>
  401219:	be a2 1f 40 00       	mov    $0x401fa2,%esi
  40121e:	bf 0e 00 00 00       	mov    $0xe,%edi
  401223:	e8 58 fb ff ff       	callq  400d80 <signal@plt>
  401228:	bf 05 00 00 00       	mov    $0x5,%edi
  40122d:	e8 0e fb ff ff       	callq  400d40 <alarm@plt>
  401232:	bd 4a 31 40 00       	mov    $0x40314a,%ebp
  401237:	eb 05                	jmp    40123e <main+0x69>
  401239:	bd 45 31 40 00       	mov    $0x403145,%ebp
  40123e:	48 8b 05 7b 42 20 00 	mov    0x20427b(%rip),%rax        # 6054c0 <stdin@@GLIBC_2.2.5>
  401245:	48 89 05 c4 42 20 00 	mov    %rax,0x2042c4(%rip)        # 605510 <infile>
  40124c:	41 bd 00 00 00 00    	mov    $0x0,%r13d
  401252:	41 be 00 00 00 00    	mov    $0x0,%r14d
  401258:	e9 c6 00 00 00       	jmpq   401323 <main+0x14e>
  40125d:	83 e8 61             	sub    $0x61,%eax
  401260:	3c 10                	cmp    $0x10,%al
  401262:	0f 87 9c 00 00 00    	ja     401304 <main+0x12f>
  401268:	0f b6 c0             	movzbl %al,%eax
  40126b:	ff 24 c5 90 31 40 00 	jmpq   *0x403190(,%rax,8)
  401272:	48 8b 3b             	mov    (%rbx),%rdi
  401275:	e8 4c fd ff ff       	callq  400fc6 <usage>
  40127a:	be 9d 34 40 00       	mov    $0x40349d,%esi
  40127f:	48 8b 3d 42 42 20 00 	mov    0x204242(%rip),%rdi        # 6054c8 <optarg@@GLIBC_2.2.5>
  401286:	e8 a5 fb ff ff       	callq  400e30 <fopen@plt>
  40128b:	48 89 05 7e 42 20 00 	mov    %rax,0x20427e(%rip)        # 605510 <infile>
  401292:	48 85 c0             	test   %rax,%rax
  401295:	0f 85 88 00 00 00    	jne    401323 <main+0x14e>
  40129b:	48 8b 0d 26 42 20 00 	mov    0x204226(%rip),%rcx        # 6054c8 <optarg@@GLIBC_2.2.5>
  4012a2:	ba 52 31 40 00       	mov    $0x403152,%edx
  4012a7:	be 01 00 00 00       	mov    $0x1,%esi
  4012ac:	48 8b 3d 2d 42 20 00 	mov    0x20422d(%rip),%rdi        # 6054e0 <stderr@@GLIBC_2.2.5>
  4012b3:	e8 d8 fb ff ff       	callq  400e90 <__fprintf_chk@plt>
  4012b8:	b8 01 00 00 00       	mov    $0x1,%eax
  4012bd:	e9 e4 00 00 00       	jmpq   4013a6 <main+0x1d1>
  4012c2:	ba 10 00 00 00       	mov    $0x10,%edx
  4012c7:	be 00 00 00 00       	mov    $0x0,%esi
  4012cc:	48 8b 3d f5 41 20 00 	mov    0x2041f5(%rip),%rdi        # 6054c8 <optarg@@GLIBC_2.2.5>
  4012d3:	e8 78 fb ff ff       	callq  400e50 <strtoul@plt>
  4012d8:	41 89 c6             	mov    %eax,%r14d
  4012db:	eb 46                	jmp    401323 <main+0x14e>
  4012dd:	ba 0a 00 00 00       	mov    $0xa,%edx
  4012e2:	be 00 00 00 00       	mov    $0x0,%esi
  4012e7:	48 8b 3d da 41 20 00 	mov    0x2041da(%rip),%rdi        # 6054c8 <optarg@@GLIBC_2.2.5>
  4012ee:	e8 bd fa ff ff       	callq  400db0 <strtol@plt>
  4012f3:	41 89 c5             	mov    %eax,%r13d
  4012f6:	eb 2b                	jmp    401323 <main+0x14e>
  4012f8:	c7 05 a6 41 20 00 00 	movl   $0x0,0x2041a6(%rip)        # 6054a8 <notify>
  4012ff:	00 00 00 
  401302:	eb 1f                	jmp    401323 <main+0x14e>
  401304:	0f be d2             	movsbl %dl,%edx
  401307:	be 6f 31 40 00       	mov    $0x40316f,%esi
  40130c:	bf 01 00 00 00       	mov    $0x1,%edi
  401311:	b8 00 00 00 00       	mov    $0x0,%eax
  401316:	e8 05 fb ff ff       	callq  400e20 <__printf_chk@plt>
  40131b:	48 8b 3b             	mov    (%rbx),%rdi
  40131e:	e8 a3 fc ff ff       	callq  400fc6 <usage>
  401323:	48 89 ea             	mov    %rbp,%rdx
  401326:	48 89 de             	mov    %rbx,%rsi
  401329:	44 89 e7             	mov    %r12d,%edi
  40132c:	e8 0f fb ff ff       	callq  400e40 <getopt@plt>
  401331:	89 c2                	mov    %eax,%edx
  401333:	3c ff                	cmp    $0xff,%al
  401335:	0f 85 22 ff ff ff    	jne    40125d <main+0x88>
  40133b:	be 00 00 00 00       	mov    $0x0,%esi
  401340:	44 89 ef             	mov    %r13d,%edi
  401343:	e8 08 fd ff ff       	callq  401050 <initialize_target>
  401348:	83 3d d9 41 20 00 00 	cmpl   $0x0,0x2041d9(%rip)        # 605528 <is_checker>
  40134f:	74 2a                	je     40137b <main+0x1a6>
  401351:	44 3b 35 c8 41 20 00 	cmp    0x2041c8(%rip),%r14d        # 605520 <authkey>
  401358:	74 21                	je     40137b <main+0x1a6>
  40135a:	44 89 f2             	mov    %r14d,%edx
  40135d:	be a8 30 40 00       	mov    $0x4030a8,%esi
  401362:	bf 01 00 00 00       	mov    $0x1,%edi
  401367:	b8 00 00 00 00       	mov    $0x0,%eax
  40136c:	e8 af fa ff ff       	callq  400e20 <__printf_chk@plt>
  401371:	b8 00 00 00 00       	mov    $0x0,%eax
  401376:	e8 d9 07 00 00       	callq  401b54 <check_fail>
  40137b:	8b 15 a3 41 20 00    	mov    0x2041a3(%rip),%edx        # 605524 <cookie>
  401381:	be 82 31 40 00       	mov    $0x403182,%esi
  401386:	bf 01 00 00 00       	mov    $0x1,%edi
  40138b:	b8 00 00 00 00       	mov    $0x0,%eax
  401390:	e8 8b fa ff ff       	callq  400e20 <__printf_chk@plt>
  401395:	48 8b 3d 04 41 20 00 	mov    0x204104(%rip),%rdi        # 6054a0 <buf_offset>
  40139c:	e8 01 0d 00 00       	callq  4020a2 <stable_launch>
  4013a1:	b8 00 00 00 00       	mov    $0x0,%eax
  4013a6:	5b                   	pop    %rbx
  4013a7:	5d                   	pop    %rbp
  4013a8:	41 5c                	pop    %r12
  4013aa:	41 5d                	pop    %r13
  4013ac:	41 5e                	pop    %r14
  4013ae:	c3                   	retq   

00000000004013af <scramble>:
  4013af:	48 83 ec 38          	sub    $0x38,%rsp
  4013b3:	64 48 8b 04 25 28 00 	mov    %fs:0x28,%rax
  4013ba:	00 00 
  4013bc:	48 89 44 24 28       	mov    %rax,0x28(%rsp)
  4013c1:	31 c0                	xor    %eax,%eax
  4013c3:	eb 10                	jmp    4013d5 <scramble+0x26>
  4013c5:	69 d0 85 06 00 00    	imul   $0x685,%eax,%edx
  4013cb:	01 fa                	add    %edi,%edx
  4013cd:	89 c1                	mov    %eax,%ecx
  4013cf:	89 14 8c             	mov    %edx,(%rsp,%rcx,4)
  4013d2:	83 c0 01             	add    $0x1,%eax
  4013d5:	83 f8 09             	cmp    $0x9,%eax
  4013d8:	76 eb                	jbe    4013c5 <scramble+0x16>
  4013da:	8b 44 24 10          	mov    0x10(%rsp),%eax
  4013de:	69 c0 77 06 00 00    	imul   $0x677,%eax,%eax
  4013e4:	89 44 24 10          	mov    %eax,0x10(%rsp)
  4013e8:	8b 44 24 0c          	mov    0xc(%rsp),%eax
  4013ec:	69 c0 40 fe 00 00    	imul   $0xfe40,%eax,%eax
  4013f2:	89 44 24 0c          	mov    %eax,0xc(%rsp)
  4013f6:	8b 04 24             	mov    (%rsp),%eax
  4013f9:	69 c0 51 bc 00 00    	imul   $0xbc51,%eax,%eax
  4013ff:	89 04 24             	mov    %eax,(%rsp)
  401402:	8b 44 24 04          	mov    0x4(%rsp),%eax
  401406:	69 c0 b5 5b 00 00    	imul   $0x5bb5,%eax,%eax
  40140c:	89 44 24 04          	mov    %eax,0x4(%rsp)
  401410:	8b 44 24 20          	mov    0x20(%rsp),%eax
  401414:	69 c0 54 1c 00 00    	imul   $0x1c54,%eax,%eax
  40141a:	89 44 24 20          	mov    %eax,0x20(%rsp)
  40141e:	8b 44 24 1c          	mov    0x1c(%rsp),%eax
  401422:	69 c0 fd 1d 00 00    	imul   $0x1dfd,%eax,%eax
  401428:	89 44 24 1c          	mov    %eax,0x1c(%rsp)
  40142c:	8b 44 24 04          	mov    0x4(%rsp),%eax
  401430:	69 c0 b2 f3 00 00    	imul   $0xf3b2,%eax,%eax
  401436:	89 44 24 04          	mov    %eax,0x4(%rsp)
  40143a:	8b 44 24 20          	mov    0x20(%rsp),%eax
  40143e:	69 c0 44 30 00 00    	imul   $0x3044,%eax,%eax
  401444:	89 44 24 20          	mov    %eax,0x20(%rsp)
  401448:	8b 44 24 0c          	mov    0xc(%rsp),%eax
  40144c:	69 c0 56 65 00 00    	imul   $0x6556,%eax,%eax
  401452:	89 44 24 0c          	mov    %eax,0xc(%rsp)
  401456:	8b 44 24 04          	mov    0x4(%rsp),%eax
  40145a:	69 c0 ce e6 00 00    	imul   $0xe6ce,%eax,%eax
  401460:	89 44 24 04          	mov    %eax,0x4(%rsp)
  401464:	8b 44 24 14          	mov    0x14(%rsp),%eax
  401468:	69 c0 54 65 00 00    	imul   $0x6554,%eax,%eax
  40146e:	89 44 24 14          	mov    %eax,0x14(%rsp)
  401472:	8b 44 24 0c          	mov    0xc(%rsp),%eax
  401476:	69 c0 d2 ac 00 00    	imul   $0xacd2,%eax,%eax
  40147c:	89 44 24 0c          	mov    %eax,0xc(%rsp)
  401480:	8b 44 24 1c          	mov    0x1c(%rsp),%eax
  401484:	69 c0 4b 3b 00 00    	imul   $0x3b4b,%eax,%eax
  40148a:	89 44 24 1c          	mov    %eax,0x1c(%rsp)
  40148e:	8b 44 24 10          	mov    0x10(%rsp),%eax
  401492:	69 c0 43 fa 00 00    	imul   $0xfa43,%eax,%eax
  401498:	89 44 24 10          	mov    %eax,0x10(%rsp)
  40149c:	8b 44 24 20          	mov    0x20(%rsp),%eax
  4014a0:	69 c0 3e 50 00 00    	imul   $0x503e,%eax,%eax
  4014a6:	89 44 24 20          	mov    %eax,0x20(%rsp)
  4014aa:	8b 44 24 14          	mov    0x14(%rsp),%eax
  4014ae:	69 c0 61 9c 00 00    	imul   $0x9c61,%eax,%eax
  4014b4:	89 44 24 14          	mov    %eax,0x14(%rsp)
  4014b8:	8b 44 24 0c          	mov    0xc(%rsp),%eax
  4014bc:	69 c0 f8 58 00 00    	imul   $0x58f8,%eax,%eax
  4014c2:	89 44 24 0c          	mov    %eax,0xc(%rsp)
  4014c6:	8b 44 24 08          	mov    0x8(%rsp),%eax
  4014ca:	69 c0 6c 11 00 00    	imul   $0x116c,%eax,%eax
  4014d0:	89 44 24 08          	mov    %eax,0x8(%rsp)
  4014d4:	8b 44 24 04          	mov    0x4(%rsp),%eax
  4014d8:	69 c0 f8 b7 00 00    	imul   $0xb7f8,%eax,%eax
  4014de:	89 44 24 04          	mov    %eax,0x4(%rsp)
  4014e2:	8b 44 24 18          	mov    0x18(%rsp),%eax
  4014e6:	69 c0 2d e3 00 00    	imul   $0xe32d,%eax,%eax
  4014ec:	89 44 24 18          	mov    %eax,0x18(%rsp)
  4014f0:	8b 44 24 08          	mov    0x8(%rsp),%eax
  4014f4:	69 c0 55 0a 00 00    	imul   $0xa55,%eax,%eax
  4014fa:	89 44 24 08          	mov    %eax,0x8(%rsp)
  4014fe:	8b 44 24 04          	mov    0x4(%rsp),%eax
  401502:	69 c0 60 3e 00 00    	imul   $0x3e60,%eax,%eax
  401508:	89 44 24 04          	mov    %eax,0x4(%rsp)
  40150c:	8b 44 24 18          	mov    0x18(%rsp),%eax
  401510:	69 c0 d8 c4 00 00    	imul   $0xc4d8,%eax,%eax
  401516:	89 44 24 18          	mov    %eax,0x18(%rsp)
  40151a:	8b 44 24 10          	mov    0x10(%rsp),%eax
  40151e:	69 c0 ca 6a 00 00    	imul   $0x6aca,%eax,%eax
  401524:	89 44 24 10          	mov    %eax,0x10(%rsp)
  401528:	8b 44 24 18          	mov    0x18(%rsp),%eax
  40152c:	69 c0 3b 29 00 00    	imul   $0x293b,%eax,%eax
  401532:	89 44 24 18          	mov    %eax,0x18(%rsp)
  401536:	8b 44 24 0c          	mov    0xc(%rsp),%eax
  40153a:	69 c0 9b 2f 00 00    	imul   $0x2f9b,%eax,%eax
  401540:	89 44 24 0c          	mov    %eax,0xc(%rsp)
  401544:	8b 44 24 0c          	mov    0xc(%rsp),%eax
  401548:	69 c0 98 2b 00 00    	imul   $0x2b98,%eax,%eax
  40154e:	89 44 24 0c          	mov    %eax,0xc(%rsp)
  401552:	8b 44 24 1c          	mov    0x1c(%rsp),%eax
  401556:	69 c0 9c f8 00 00    	imul   $0xf89c,%eax,%eax
  40155c:	89 44 24 1c          	mov    %eax,0x1c(%rsp)
  401560:	8b 44 24 18          	mov    0x18(%rsp),%eax
  401564:	69 c0 7e 4c 00 00    	imul   $0x4c7e,%eax,%eax
  40156a:	89 44 24 18          	mov    %eax,0x18(%rsp)
  40156e:	8b 44 24 20          	mov    0x20(%rsp),%eax
  401572:	69 c0 bf fc 00 00    	imul   $0xfcbf,%eax,%eax
  401578:	89 44 24 20          	mov    %eax,0x20(%rsp)
  40157c:	8b 44 24 24          	mov    0x24(%rsp),%eax
  401580:	69 c0 dc 6f 00 00    	imul   $0x6fdc,%eax,%eax
  401586:	89 44 24 24          	mov    %eax,0x24(%rsp)
  40158a:	8b 44 24 08          	mov    0x8(%rsp),%eax
  40158e:	69 c0 71 f3 00 00    	imul   $0xf371,%eax,%eax
  401594:	89 44 24 08          	mov    %eax,0x8(%rsp)
  401598:	8b 44 24 0c          	mov    0xc(%rsp),%eax
  40159c:	69 c0 c2 33 00 00    	imul   $0x33c2,%eax,%eax
  4015a2:	89 44 24 0c          	mov    %eax,0xc(%rsp)
  4015a6:	8b 04 24             	mov    (%rsp),%eax
  4015a9:	69 c0 1e de 00 00    	imul   $0xde1e,%eax,%eax
  4015af:	89 04 24             	mov    %eax,(%rsp)
  4015b2:	8b 44 24 1c          	mov    0x1c(%rsp),%eax
  4015b6:	69 c0 fe 71 00 00    	imul   $0x71fe,%eax,%eax
  4015bc:	89 44 24 1c          	mov    %eax,0x1c(%rsp)
  4015c0:	8b 44 24 14          	mov    0x14(%rsp),%eax
  4015c4:	69 c0 07 c0 00 00    	imul   $0xc007,%eax,%eax
  4015ca:	89 44 24 14          	mov    %eax,0x14(%rsp)
  4015ce:	8b 44 24 14          	mov    0x14(%rsp),%eax
  4015d2:	69 c0 76 c2 00 00    	imul   $0xc276,%eax,%eax
  4015d8:	89 44 24 14          	mov    %eax,0x14(%rsp)
  4015dc:	8b 44 24 18          	mov    0x18(%rsp),%eax
  4015e0:	69 c0 5b 7a 00 00    	imul   $0x7a5b,%eax,%eax
  4015e6:	89 44 24 18          	mov    %eax,0x18(%rsp)
  4015ea:	8b 44 24 24          	mov    0x24(%rsp),%eax
  4015ee:	69 c0 0b 6d 00 00    	imul   $0x6d0b,%eax,%eax
  4015f4:	89 44 24 24          	mov    %eax,0x24(%rsp)
  4015f8:	8b 44 24 10          	mov    0x10(%rsp),%eax
  4015fc:	69 c0 7c b1 00 00    	imul   $0xb17c,%eax,%eax
  401602:	89 44 24 10          	mov    %eax,0x10(%rsp)
  401606:	8b 44 24 24          	mov    0x24(%rsp),%eax
  40160a:	69 c0 bd 36 00 00    	imul   $0x36bd,%eax,%eax
  401610:	89 44 24 24          	mov    %eax,0x24(%rsp)
  401614:	8b 44 24 04          	mov    0x4(%rsp),%eax
  401618:	69 c0 d6 24 00 00    	imul   $0x24d6,%eax,%eax
  40161e:	89 44 24 04          	mov    %eax,0x4(%rsp)
  401622:	8b 44 24 20          	mov    0x20(%rsp),%eax
  401626:	69 c0 84 bd 00 00    	imul   $0xbd84,%eax,%eax
  40162c:	89 44 24 20          	mov    %eax,0x20(%rsp)
  401630:	8b 44 24 14          	mov    0x14(%rsp),%eax
  401634:	69 c0 38 c9 00 00    	imul   $0xc938,%eax,%eax
  40163a:	89 44 24 14          	mov    %eax,0x14(%rsp)
  40163e:	8b 44 24 08          	mov    0x8(%rsp),%eax
  401642:	69 c0 52 10 00 00    	imul   $0x1052,%eax,%eax
  401648:	89 44 24 08          	mov    %eax,0x8(%rsp)
  40164c:	8b 44 24 08          	mov    0x8(%rsp),%eax
  401650:	69 c0 bf a6 00 00    	imul   $0xa6bf,%eax,%eax
  401656:	89 44 24 08          	mov    %eax,0x8(%rsp)
  40165a:	8b 44 24 24          	mov    0x24(%rsp),%eax
  40165e:	69 c0 19 5f 00 00    	imul   $0x5f19,%eax,%eax
  401664:	89 44 24 24          	mov    %eax,0x24(%rsp)
  401668:	8b 44 24 1c          	mov    0x1c(%rsp),%eax
  40166c:	69 c0 03 49 00 00    	imul   $0x4903,%eax,%eax
  401672:	89 44 24 1c          	mov    %eax,0x1c(%rsp)
  401676:	8b 44 24 04          	mov    0x4(%rsp),%eax
  40167a:	69 c0 0e 9f 00 00    	imul   $0x9f0e,%eax,%eax
  401680:	89 44 24 04          	mov    %eax,0x4(%rsp)
  401684:	8b 44 24 0c          	mov    0xc(%rsp),%eax
  401688:	69 c0 96 7e 00 00    	imul   $0x7e96,%eax,%eax
  40168e:	89 44 24 0c          	mov    %eax,0xc(%rsp)
  401692:	8b 44 24 24          	mov    0x24(%rsp),%eax
  401696:	69 c0 6d e8 00 00    	imul   $0xe86d,%eax,%eax
  40169c:	89 44 24 24          	mov    %eax,0x24(%rsp)
  4016a0:	8b 44 24 0c          	mov    0xc(%rsp),%eax
  4016a4:	69 c0 60 8d 00 00    	imul   $0x8d60,%eax,%eax
  4016aa:	89 44 24 0c          	mov    %eax,0xc(%rsp)
  4016ae:	8b 44 24 1c          	mov    0x1c(%rsp),%eax
  4016b2:	69 c0 04 3d 00 00    	imul   $0x3d04,%eax,%eax
  4016b8:	89 44 24 1c          	mov    %eax,0x1c(%rsp)
  4016bc:	8b 44 24 04          	mov    0x4(%rsp),%eax
  4016c0:	69 c0 31 32 00 00    	imul   $0x3231,%eax,%eax
  4016c6:	89 44 24 04          	mov    %eax,0x4(%rsp)
  4016ca:	8b 44 24 04          	mov    0x4(%rsp),%eax
  4016ce:	69 c0 e0 ec 00 00    	imul   $0xece0,%eax,%eax
  4016d4:	89 44 24 04          	mov    %eax,0x4(%rsp)
  4016d8:	8b 44 24 18          	mov    0x18(%rsp),%eax
  4016dc:	69 c0 55 40 00 00    	imul   $0x4055,%eax,%eax
  4016e2:	89 44 24 18          	mov    %eax,0x18(%rsp)
  4016e6:	8b 44 24 14          	mov    0x14(%rsp),%eax
  4016ea:	69 c0 c4 c4 00 00    	imul   $0xc4c4,%eax,%eax
  4016f0:	89 44 24 14          	mov    %eax,0x14(%rsp)
  4016f4:	8b 44 24 08          	mov    0x8(%rsp),%eax
  4016f8:	69 c0 f3 85 00 00    	imul   $0x85f3,%eax,%eax
  4016fe:	89 44 24 08          	mov    %eax,0x8(%rsp)
  401702:	8b 44 24 20          	mov    0x20(%rsp),%eax
  401706:	69 c0 9e 82 00 00    	imul   $0x829e,%eax,%eax
  40170c:	89 44 24 20          	mov    %eax,0x20(%rsp)
  401710:	8b 44 24 08          	mov    0x8(%rsp),%eax
  401714:	69 c0 4b 8c 00 00    	imul   $0x8c4b,%eax,%eax
  40171a:	89 44 24 08          	mov    %eax,0x8(%rsp)
  40171e:	8b 44 24 14          	mov    0x14(%rsp),%eax
  401722:	69 c0 24 15 00 00    	imul   $0x1524,%eax,%eax
  401728:	89 44 24 14          	mov    %eax,0x14(%rsp)
  40172c:	8b 44 24 14          	mov    0x14(%rsp),%eax
  401730:	69 c0 1f 13 00 00    	imul   $0x131f,%eax,%eax
  401736:	89 44 24 14          	mov    %eax,0x14(%rsp)
  40173a:	8b 44 24 10          	mov    0x10(%rsp),%eax
  40173e:	69 c0 3c cd 00 00    	imul   $0xcd3c,%eax,%eax
  401744:	89 44 24 10          	mov    %eax,0x10(%rsp)
  401748:	8b 04 24             	mov    (%rsp),%eax
  40174b:	69 c0 18 07 00 00    	imul   $0x718,%eax,%eax
  401751:	89 04 24             	mov    %eax,(%rsp)
  401754:	8b 44 24 08          	mov    0x8(%rsp),%eax
  401758:	69 c0 43 83 00 00    	imul   $0x8343,%eax,%eax
  40175e:	89 44 24 08          	mov    %eax,0x8(%rsp)
  401762:	8b 44 24 20          	mov    0x20(%rsp),%eax
  401766:	69 c0 57 7d 00 00    	imul   $0x7d57,%eax,%eax
  40176c:	89 44 24 20          	mov    %eax,0x20(%rsp)
  401770:	8b 44 24 10          	mov    0x10(%rsp),%eax
  401774:	69 c0 4b c4 00 00    	imul   $0xc44b,%eax,%eax
  40177a:	89 44 24 10          	mov    %eax,0x10(%rsp)
  40177e:	8b 44 24 04          	mov    0x4(%rsp),%eax
  401782:	69 c0 93 16 00 00    	imul   $0x1693,%eax,%eax
  401788:	89 44 24 04          	mov    %eax,0x4(%rsp)
  40178c:	8b 44 24 08          	mov    0x8(%rsp),%eax
  401790:	69 c0 73 12 00 00    	imul   $0x1273,%eax,%eax
  401796:	89 44 24 08          	mov    %eax,0x8(%rsp)
  40179a:	8b 44 24 08          	mov    0x8(%rsp),%eax
  40179e:	69 c0 5e ab 00 00    	imul   $0xab5e,%eax,%eax
  4017a4:	89 44 24 08          	mov    %eax,0x8(%rsp)
  4017a8:	8b 44 24 20          	mov    0x20(%rsp),%eax
  4017ac:	69 c0 71 2c 00 00    	imul   $0x2c71,%eax,%eax
  4017b2:	89 44 24 20          	mov    %eax,0x20(%rsp)
  4017b6:	8b 44 24 0c          	mov    0xc(%rsp),%eax
  4017ba:	69 c0 f2 22 00 00    	imul   $0x22f2,%eax,%eax
  4017c0:	89 44 24 0c          	mov    %eax,0xc(%rsp)
  4017c4:	8b 44 24 24          	mov    0x24(%rsp),%eax
  4017c8:	69 c0 df 50 00 00    	imul   $0x50df,%eax,%eax
  4017ce:	89 44 24 24          	mov    %eax,0x24(%rsp)
  4017d2:	8b 44 24 04          	mov    0x4(%rsp),%eax
  4017d6:	69 c0 7e 73 00 00    	imul   $0x737e,%eax,%eax
  4017dc:	89 44 24 04          	mov    %eax,0x4(%rsp)
  4017e0:	8b 44 24 1c          	mov    0x1c(%rsp),%eax
  4017e4:	69 c0 11 f8 00 00    	imul   $0xf811,%eax,%eax
  4017ea:	89 44 24 1c          	mov    %eax,0x1c(%rsp)
  4017ee:	8b 44 24 04          	mov    0x4(%rsp),%eax
  4017f2:	69 c0 6e 66 00 00    	imul   $0x666e,%eax,%eax
  4017f8:	89 44 24 04          	mov    %eax,0x4(%rsp)
  4017fc:	8b 44 24 0c          	mov    0xc(%rsp),%eax
  401800:	69 c0 d4 32 00 00    	imul   $0x32d4,%eax,%eax
  401806:	89 44 24 0c          	mov    %eax,0xc(%rsp)
  40180a:	8b 04 24             	mov    (%rsp),%eax
  40180d:	69 c0 72 81 00 00    	imul   $0x8172,%eax,%eax
  401813:	89 04 24             	mov    %eax,(%rsp)
  401816:	8b 44 24 04          	mov    0x4(%rsp),%eax
  40181a:	69 c0 af d5 00 00    	imul   $0xd5af,%eax,%eax
  401820:	89 44 24 04          	mov    %eax,0x4(%rsp)
  401824:	8b 44 24 18          	mov    0x18(%rsp),%eax
  401828:	69 c0 5b 6c 00 00    	imul   $0x6c5b,%eax,%eax
  40182e:	89 44 24 18          	mov    %eax,0x18(%rsp)
  401832:	8b 44 24 20          	mov    0x20(%rsp),%eax
  401836:	69 c0 39 0e 00 00    	imul   $0xe39,%eax,%eax
  40183c:	89 44 24 20          	mov    %eax,0x20(%rsp)
  401840:	8b 44 24 24          	mov    0x24(%rsp),%eax
  401844:	69 c0 a3 c4 00 00    	imul   $0xc4a3,%eax,%eax
  40184a:	89 44 24 24          	mov    %eax,0x24(%rsp)
  40184e:	8b 44 24 20          	mov    0x20(%rsp),%eax
  401852:	69 c0 6a f4 00 00    	imul   $0xf46a,%eax,%eax
  401858:	89 44 24 20          	mov    %eax,0x20(%rsp)
  40185c:	8b 44 24 20          	mov    0x20(%rsp),%eax
  401860:	69 c0 d4 d3 00 00    	imul   $0xd3d4,%eax,%eax
  401866:	89 44 24 20          	mov    %eax,0x20(%rsp)
  40186a:	8b 44 24 0c          	mov    0xc(%rsp),%eax
  40186e:	69 c0 fb 23 00 00    	imul   $0x23fb,%eax,%eax
  401874:	89 44 24 0c          	mov    %eax,0xc(%rsp)
  401878:	8b 44 24 10          	mov    0x10(%rsp),%eax
  40187c:	69 c0 32 06 00 00    	imul   $0x632,%eax,%eax
  401882:	89 44 24 10          	mov    %eax,0x10(%rsp)
  401886:	8b 44 24 10          	mov    0x10(%rsp),%eax
  40188a:	69 c0 e7 6a 00 00    	imul   $0x6ae7,%eax,%eax
  401890:	89 44 24 10          	mov    %eax,0x10(%rsp)
  401894:	8b 44 24 20          	mov    0x20(%rsp),%eax
  401898:	69 c0 a2 41 00 00    	imul   $0x41a2,%eax,%eax
  40189e:	89 44 24 20          	mov    %eax,0x20(%rsp)
  4018a2:	8b 04 24             	mov    (%rsp),%eax
  4018a5:	69 c0 09 d2 00 00    	imul   $0xd209,%eax,%eax
  4018ab:	89 04 24             	mov    %eax,(%rsp)
  4018ae:	8b 44 24 14          	mov    0x14(%rsp),%eax
  4018b2:	69 c0 44 8f 00 00    	imul   $0x8f44,%eax,%eax
  4018b8:	89 44 24 14          	mov    %eax,0x14(%rsp)
  4018bc:	8b 44 24 20          	mov    0x20(%rsp),%eax
  4018c0:	69 c0 e9 b4 00 00    	imul   $0xb4e9,%eax,%eax
  4018c6:	89 44 24 20          	mov    %eax,0x20(%rsp)
  4018ca:	ba 00 00 00 00       	mov    $0x0,%edx
  4018cf:	b8 00 00 00 00       	mov    $0x0,%eax
  4018d4:	eb 0a                	jmp    4018e0 <scramble+0x531>
  4018d6:	89 d1                	mov    %edx,%ecx
  4018d8:	8b 0c 8c             	mov    (%rsp,%rcx,4),%ecx
  4018db:	01 c8                	add    %ecx,%eax
  4018dd:	83 c2 01             	add    $0x1,%edx
  4018e0:	83 fa 09             	cmp    $0x9,%edx
  4018e3:	76 f1                	jbe    4018d6 <scramble+0x527>
  4018e5:	48 8b 74 24 28       	mov    0x28(%rsp),%rsi
  4018ea:	64 48 33 34 25 28 00 	xor    %fs:0x28,%rsi
  4018f1:	00 00 
  4018f3:	74 05                	je     4018fa <scramble+0x54b>
  4018f5:	e8 16 f4 ff ff       	callq  400d10 <__stack_chk_fail@plt>
  4018fa:	48 83 c4 38          	add    $0x38,%rsp
  4018fe:	c3                   	retq   

00000000004018ff <getbuf>:
  4018ff:	48 83 ec 18          	sub    $0x18,%rsp
  401903:	48 89 e7             	mov    %rsp,%rdi
  401906:	e8 7e 02 00 00       	callq  401b89 <Gets>
  40190b:	b8 01 00 00 00       	mov    $0x1,%eax
  401910:	48 83 c4 18          	add    $0x18,%rsp
  401914:	c3                   	retq   

0000000000401915 <touch1>:
  401915:	48 83 ec 08          	sub    $0x8,%rsp
  401919:	c7 05 f9 3b 20 00 01 	movl   $0x1,0x203bf9(%rip)        # 60551c <vlevel>
  401920:	00 00 00 
  401923:	bf f6 32 40 00       	mov    $0x4032f6,%edi
  401928:	e8 c3 f3 ff ff       	callq  400cf0 <puts@plt>
  40192d:	bf 01 00 00 00       	mov    $0x1,%edi
  401932:	e8 97 04 00 00       	callq  401dce <validate>
  401937:	bf 00 00 00 00       	mov    $0x0,%edi
  40193c:	e8 2f f5 ff ff       	callq  400e70 <exit@plt>

0000000000401941 <touch2>:
  401941:	48 83 ec 08          	sub    $0x8,%rsp
  401945:	89 fa                	mov    %edi,%edx
  401947:	c7 05 cb 3b 20 00 02 	movl   $0x2,0x203bcb(%rip)        # 60551c <vlevel>
  40194e:	00 00 00 
  401951:	39 3d cd 3b 20 00    	cmp    %edi,0x203bcd(%rip)        # 605524 <cookie>
  401957:	75 20                	jne    401979 <touch2+0x38>
  401959:	be 18 33 40 00       	mov    $0x403318,%esi
  40195e:	bf 01 00 00 00       	mov    $0x1,%edi
  401963:	b8 00 00 00 00       	mov    $0x0,%eax
  401968:	e8 b3 f4 ff ff       	callq  400e20 <__printf_chk@plt>
  40196d:	bf 02 00 00 00       	mov    $0x2,%edi
  401972:	e8 57 04 00 00       	callq  401dce <validate>
  401977:	eb 1e                	jmp    401997 <touch2+0x56>
  401979:	be 40 33 40 00       	mov    $0x403340,%esi
  40197e:	bf 01 00 00 00       	mov    $0x1,%edi
  401983:	b8 00 00 00 00       	mov    $0x0,%eax
  401988:	e8 93 f4 ff ff       	callq  400e20 <__printf_chk@plt>
  40198d:	bf 02 00 00 00       	mov    $0x2,%edi
  401992:	e8 f9 04 00 00       	callq  401e90 <fail>
  401997:	bf 00 00 00 00       	mov    $0x0,%edi
  40199c:	e8 cf f4 ff ff       	callq  400e70 <exit@plt>

00000000004019a1 <hexmatch>:
  4019a1:	41 54                	push   %r12
  4019a3:	55                   	push   %rbp
  4019a4:	53                   	push   %rbx
  4019a5:	48 83 c4 80          	add    $0xffffffffffffff80,%rsp
  4019a9:	89 fd                	mov    %edi,%ebp
  4019ab:	48 89 f3             	mov    %rsi,%rbx
  4019ae:	64 48 8b 04 25 28 00 	mov    %fs:0x28,%rax
  4019b5:	00 00 
  4019b7:	48 89 44 24 78       	mov    %rax,0x78(%rsp)
  4019bc:	31 c0                	xor    %eax,%eax
  4019be:	e8 1d f4 ff ff       	callq  400de0 <random@plt>
  4019c3:	48 89 c1             	mov    %rax,%rcx
  4019c6:	48 ba 0b d7 a3 70 3d 	movabs $0xa3d70a3d70a3d70b,%rdx
  4019cd:	0a d7 a3 
  4019d0:	48 f7 ea             	imul   %rdx
  4019d3:	48 01 ca             	add    %rcx,%rdx
  4019d6:	48 c1 fa 06          	sar    $0x6,%rdx
  4019da:	48 89 c8             	mov    %rcx,%rax
  4019dd:	48 c1 f8 3f          	sar    $0x3f,%rax
  4019e1:	48 29 c2             	sub    %rax,%rdx
  4019e4:	48 8d 04 92          	lea    (%rdx,%rdx,4),%rax
  4019e8:	48 8d 14 80          	lea    (%rax,%rax,4),%rdx
  4019ec:	48 8d 04 95 00 00 00 	lea    0x0(,%rdx,4),%rax
  4019f3:	00 
  4019f4:	48 29 c1             	sub    %rax,%rcx
  4019f7:	4c 8d 24 0c          	lea    (%rsp,%rcx,1),%r12
  4019fb:	41 89 e8             	mov    %ebp,%r8d
  4019fe:	b9 13 33 40 00       	mov    $0x403313,%ecx
  401a03:	48 c7 c2 ff ff ff ff 	mov    $0xffffffffffffffff,%rdx
  401a0a:	be 01 00 00 00       	mov    $0x1,%esi
  401a0f:	4c 89 e7             	mov    %r12,%rdi
  401a12:	b8 00 00 00 00       	mov    $0x0,%eax
  401a17:	e8 84 f4 ff ff       	callq  400ea0 <__sprintf_chk@plt>
  401a1c:	ba 09 00 00 00       	mov    $0x9,%edx
  401a21:	4c 89 e6             	mov    %r12,%rsi
  401a24:	48 89 df             	mov    %rbx,%rdi
  401a27:	e8 a4 f2 ff ff       	callq  400cd0 <strncmp@plt>
  401a2c:	85 c0                	test   %eax,%eax
  401a2e:	0f 94 c0             	sete   %al
  401a31:	48 8b 5c 24 78       	mov    0x78(%rsp),%rbx
  401a36:	64 48 33 1c 25 28 00 	xor    %fs:0x28,%rbx
  401a3d:	00 00 
  401a3f:	74 05                	je     401a46 <hexmatch+0xa5>
  401a41:	e8 ca f2 ff ff       	callq  400d10 <__stack_chk_fail@plt>
  401a46:	0f b6 c0             	movzbl %al,%eax
  401a49:	48 83 ec 80          	sub    $0xffffffffffffff80,%rsp
  401a4d:	5b                   	pop    %rbx
  401a4e:	5d                   	pop    %rbp
  401a4f:	41 5c                	pop    %r12
  401a51:	c3                   	retq   

0000000000401a52 <touch3>:
  401a52:	53                   	push   %rbx
  401a53:	48 89 fb             	mov    %rdi,%rbx
  401a56:	c7 05 bc 3a 20 00 03 	movl   $0x3,0x203abc(%rip)        # 60551c <vlevel>
  401a5d:	00 00 00 
  401a60:	48 89 fe             	mov    %rdi,%rsi
  401a63:	8b 3d bb 3a 20 00    	mov    0x203abb(%rip),%edi        # 605524 <cookie>
  401a69:	e8 33 ff ff ff       	callq  4019a1 <hexmatch>
  401a6e:	85 c0                	test   %eax,%eax
  401a70:	74 23                	je     401a95 <touch3+0x43>
  401a72:	48 89 da             	mov    %rbx,%rdx
  401a75:	be 68 33 40 00       	mov    $0x403368,%esi
  401a7a:	bf 01 00 00 00       	mov    $0x1,%edi
  401a7f:	b8 00 00 00 00       	mov    $0x0,%eax
  401a84:	e8 97 f3 ff ff       	callq  400e20 <__printf_chk@plt>
  401a89:	bf 03 00 00 00       	mov    $0x3,%edi
  401a8e:	e8 3b 03 00 00       	callq  401dce <validate>
  401a93:	eb 21                	jmp    401ab6 <touch3+0x64>
  401a95:	48 89 da             	mov    %rbx,%rdx
  401a98:	be 90 33 40 00       	mov    $0x403390,%esi
  401a9d:	bf 01 00 00 00       	mov    $0x1,%edi
  401aa2:	b8 00 00 00 00       	mov    $0x0,%eax
  401aa7:	e8 74 f3 ff ff       	callq  400e20 <__printf_chk@plt>
  401aac:	bf 03 00 00 00       	mov    $0x3,%edi
  401ab1:	e8 da 03 00 00       	callq  401e90 <fail>
  401ab6:	bf 00 00 00 00       	mov    $0x0,%edi
  401abb:	e8 b0 f3 ff ff       	callq  400e70 <exit@plt>

0000000000401ac0 <test>:
  401ac0:	48 83 ec 08          	sub    $0x8,%rsp
  401ac4:	b8 00 00 00 00       	mov    $0x0,%eax
  401ac9:	e8 31 fe ff ff       	callq  4018ff <getbuf>
  401ace:	89 c2                	mov    %eax,%edx
  401ad0:	be b8 33 40 00       	mov    $0x4033b8,%esi
  401ad5:	bf 01 00 00 00       	mov    $0x1,%edi
  401ada:	b8 00 00 00 00       	mov    $0x0,%eax
  401adf:	e8 3c f3 ff ff       	callq  400e20 <__printf_chk@plt>
  401ae4:	48 83 c4 08          	add    $0x8,%rsp
  401ae8:	c3                   	retq   

0000000000401ae9 <save_char>:
  401ae9:	8b 05 55 46 20 00    	mov    0x204655(%rip),%eax        # 606144 <gets_cnt>
  401aef:	3d ff 03 00 00       	cmp    $0x3ff,%eax
  401af4:	7f 49                	jg     401b3f <save_char+0x56>
  401af6:	8d 14 40             	lea    (%rax,%rax,2),%edx
  401af9:	89 f9                	mov    %edi,%ecx
  401afb:	c0 e9 04             	shr    $0x4,%cl
  401afe:	83 e1 0f             	and    $0xf,%ecx
  401b01:	0f b6 b1 e0 36 40 00 	movzbl 0x4036e0(%rcx),%esi
  401b08:	48 63 ca             	movslq %edx,%rcx
  401b0b:	40 88 b1 40 55 60 00 	mov    %sil,0x605540(%rcx)
  401b12:	8d 4a 01             	lea    0x1(%rdx),%ecx
  401b15:	83 e7 0f             	and    $0xf,%edi
  401b18:	0f b6 b7 e0 36 40 00 	movzbl 0x4036e0(%rdi),%esi
  401b1f:	48 63 c9             	movslq %ecx,%rcx
  401b22:	40 88 b1 40 55 60 00 	mov    %sil,0x605540(%rcx)
  401b29:	83 c2 02             	add    $0x2,%edx
  401b2c:	48 63 d2             	movslq %edx,%rdx
  401b2f:	c6 82 40 55 60 00 20 	movb   $0x20,0x605540(%rdx)
  401b36:	83 c0 01             	add    $0x1,%eax
  401b39:	89 05 05 46 20 00    	mov    %eax,0x204605(%rip)        # 606144 <gets_cnt>
  401b3f:	f3 c3                	repz retq 

0000000000401b41 <save_term>:
  401b41:	8b 05 fd 45 20 00    	mov    0x2045fd(%rip),%eax        # 606144 <gets_cnt>
  401b47:	8d 04 40             	lea    (%rax,%rax,2),%eax
  401b4a:	48 98                	cltq   
  401b4c:	c6 80 40 55 60 00 00 	movb   $0x0,0x605540(%rax)
  401b53:	c3                   	retq   

0000000000401b54 <check_fail>:
  401b54:	48 83 ec 08          	sub    $0x8,%rsp
  401b58:	0f be 15 e9 45 20 00 	movsbl 0x2045e9(%rip),%edx        # 606148 <target_prefix>
  401b5f:	41 b8 40 55 60 00    	mov    $0x605540,%r8d
  401b65:	8b 0d ad 39 20 00    	mov    0x2039ad(%rip),%ecx        # 605518 <check_level>
  401b6b:	be db 33 40 00       	mov    $0x4033db,%esi
  401b70:	bf 01 00 00 00       	mov    $0x1,%edi
  401b75:	b8 00 00 00 00       	mov    $0x0,%eax
  401b7a:	e8 a1 f2 ff ff       	callq  400e20 <__printf_chk@plt>
  401b7f:	bf 01 00 00 00       	mov    $0x1,%edi
  401b84:	e8 e7 f2 ff ff       	callq  400e70 <exit@plt>

0000000000401b89 <Gets>:
  401b89:	41 54                	push   %r12
  401b8b:	55                   	push   %rbp
  401b8c:	53                   	push   %rbx
  401b8d:	49 89 fc             	mov    %rdi,%r12
  401b90:	c7 05 aa 45 20 00 00 	movl   $0x0,0x2045aa(%rip)        # 606144 <gets_cnt>
  401b97:	00 00 00 
  401b9a:	48 89 fb             	mov    %rdi,%rbx
  401b9d:	eb 11                	jmp    401bb0 <Gets+0x27>
  401b9f:	48 8d 6b 01          	lea    0x1(%rbx),%rbp
  401ba3:	88 03                	mov    %al,(%rbx)
  401ba5:	0f b6 f8             	movzbl %al,%edi
  401ba8:	e8 3c ff ff ff       	callq  401ae9 <save_char>
  401bad:	48 89 eb             	mov    %rbp,%rbx
  401bb0:	48 8b 3d 59 39 20 00 	mov    0x203959(%rip),%rdi        # 605510 <infile>
  401bb7:	e8 34 f2 ff ff       	callq  400df0 <_IO_getc@plt>
  401bbc:	83 f8 ff             	cmp    $0xffffffff,%eax
  401bbf:	74 05                	je     401bc6 <Gets+0x3d>
  401bc1:	83 f8 0a             	cmp    $0xa,%eax
  401bc4:	75 d9                	jne    401b9f <Gets+0x16>
  401bc6:	c6 03 00             	movb   $0x0,(%rbx)
  401bc9:	b8 00 00 00 00       	mov    $0x0,%eax
  401bce:	e8 6e ff ff ff       	callq  401b41 <save_term>
  401bd3:	4c 89 e0             	mov    %r12,%rax
  401bd6:	5b                   	pop    %rbx
  401bd7:	5d                   	pop    %rbp
  401bd8:	41 5c                	pop    %r12
  401bda:	c3                   	retq   

0000000000401bdb <notify_server>:
  401bdb:	53                   	push   %rbx
  401bdc:	48 81 ec 10 40 00 00 	sub    $0x4010,%rsp
  401be3:	64 48 8b 04 25 28 00 	mov    %fs:0x28,%rax
  401bea:	00 00 
  401bec:	48 89 84 24 08 40 00 	mov    %rax,0x4008(%rsp)
  401bf3:	00 
  401bf4:	31 c0                	xor    %eax,%eax
  401bf6:	83 3d 2b 39 20 00 00 	cmpl   $0x0,0x20392b(%rip)        # 605528 <is_checker>
  401bfd:	0f 85 aa 01 00 00    	jne    401dad <notify_server+0x1d2>
  401c03:	89 fb                	mov    %edi,%ebx
  401c05:	8b 05 39 45 20 00    	mov    0x204539(%rip),%eax        # 606144 <gets_cnt>
  401c0b:	83 c0 64             	add    $0x64,%eax
  401c0e:	3d 00 20 00 00       	cmp    $0x2000,%eax
  401c13:	7e 1e                	jle    401c33 <notify_server+0x58>
  401c15:	be 10 35 40 00       	mov    $0x403510,%esi
  401c1a:	bf 01 00 00 00       	mov    $0x1,%edi
  401c1f:	b8 00 00 00 00       	mov    $0x0,%eax
  401c24:	e8 f7 f1 ff ff       	callq  400e20 <__printf_chk@plt>
  401c29:	bf 01 00 00 00       	mov    $0x1,%edi
  401c2e:	e8 3d f2 ff ff       	callq  400e70 <exit@plt>
  401c33:	0f be 05 0e 45 20 00 	movsbl 0x20450e(%rip),%eax        # 606148 <target_prefix>
  401c3a:	83 3d 67 38 20 00 00 	cmpl   $0x0,0x203867(%rip)        # 6054a8 <notify>
  401c41:	74 08                	je     401c4b <notify_server+0x70>
  401c43:	8b 15 d7 38 20 00    	mov    0x2038d7(%rip),%edx        # 605520 <authkey>
  401c49:	eb 05                	jmp    401c50 <notify_server+0x75>
  401c4b:	ba ff ff ff ff       	mov    $0xffffffff,%edx
  401c50:	85 db                	test   %ebx,%ebx
  401c52:	74 08                	je     401c5c <notify_server+0x81>
  401c54:	41 b9 f1 33 40 00    	mov    $0x4033f1,%r9d
  401c5a:	eb 06                	jmp    401c62 <notify_server+0x87>
  401c5c:	41 b9 f6 33 40 00    	mov    $0x4033f6,%r9d
  401c62:	68 40 55 60 00       	pushq  $0x605540
  401c67:	56                   	push   %rsi
  401c68:	50                   	push   %rax
  401c69:	52                   	push   %rdx
  401c6a:	44 8b 05 f7 34 20 00 	mov    0x2034f7(%rip),%r8d        # 605168 <target_id>
  401c71:	b9 fb 33 40 00       	mov    $0x4033fb,%ecx
  401c76:	ba 00 20 00 00       	mov    $0x2000,%edx
  401c7b:	be 01 00 00 00       	mov    $0x1,%esi
  401c80:	48 8d 7c 24 20       	lea    0x20(%rsp),%rdi
  401c85:	b8 00 00 00 00       	mov    $0x0,%eax
  401c8a:	e8 11 f2 ff ff       	callq  400ea0 <__sprintf_chk@plt>
  401c8f:	48 83 c4 20          	add    $0x20,%rsp
  401c93:	83 3d 0e 38 20 00 00 	cmpl   $0x0,0x20380e(%rip)        # 6054a8 <notify>
  401c9a:	0f 84 81 00 00 00    	je     401d21 <notify_server+0x146>
  401ca0:	4c 8d 8c 24 00 20 00 	lea    0x2000(%rsp),%r9
  401ca7:	00 
  401ca8:	41 b8 00 00 00 00    	mov    $0x0,%r8d
  401cae:	48 89 e1             	mov    %rsp,%rcx
  401cb1:	48 8b 15 b8 34 20 00 	mov    0x2034b8(%rip),%rdx        # 605170 <lab>
  401cb8:	48 8b 35 b9 34 20 00 	mov    0x2034b9(%rip),%rsi        # 605178 <course>
  401cbf:	48 8b 3d 9a 34 20 00 	mov    0x20349a(%rip),%rdi        # 605160 <user_id>
  401cc6:	e8 0e 11 00 00       	callq  402dd9 <driver_post>
  401ccb:	85 c0                	test   %eax,%eax
  401ccd:	79 26                	jns    401cf5 <notify_server+0x11a>
  401ccf:	48 8d 94 24 00 20 00 	lea    0x2000(%rsp),%rdx
  401cd6:	00 
  401cd7:	be 17 34 40 00       	mov    $0x403417,%esi
  401cdc:	bf 01 00 00 00       	mov    $0x1,%edi
  401ce1:	b8 00 00 00 00       	mov    $0x0,%eax
  401ce6:	e8 35 f1 ff ff       	callq  400e20 <__printf_chk@plt>
  401ceb:	bf 01 00 00 00       	mov    $0x1,%edi
  401cf0:	e8 7b f1 ff ff       	callq  400e70 <exit@plt>
  401cf5:	85 db                	test   %ebx,%ebx
  401cf7:	74 19                	je     401d12 <notify_server+0x137>
  401cf9:	bf 40 35 40 00       	mov    $0x403540,%edi
  401cfe:	e8 ed ef ff ff       	callq  400cf0 <puts@plt>
  401d03:	bf 23 34 40 00       	mov    $0x403423,%edi
  401d08:	e8 e3 ef ff ff       	callq  400cf0 <puts@plt>
  401d0d:	e9 9b 00 00 00       	jmpq   401dad <notify_server+0x1d2>
  401d12:	bf 2d 34 40 00       	mov    $0x40342d,%edi
  401d17:	e8 d4 ef ff ff       	callq  400cf0 <puts@plt>
  401d1c:	e9 8c 00 00 00       	jmpq   401dad <notify_server+0x1d2>
  401d21:	85 db                	test   %ebx,%ebx
  401d23:	74 07                	je     401d2c <notify_server+0x151>
  401d25:	ba f1 33 40 00       	mov    $0x4033f1,%edx
  401d2a:	eb 05                	jmp    401d31 <notify_server+0x156>
  401d2c:	ba f6 33 40 00       	mov    $0x4033f6,%edx
  401d31:	be 78 35 40 00       	mov    $0x403578,%esi
  401d36:	bf 01 00 00 00       	mov    $0x1,%edi
  401d3b:	b8 00 00 00 00       	mov    $0x0,%eax
  401d40:	e8 db f0 ff ff       	callq  400e20 <__printf_chk@plt>
  401d45:	48 8b 15 14 34 20 00 	mov    0x203414(%rip),%rdx        # 605160 <user_id>
  401d4c:	be 34 34 40 00       	mov    $0x403434,%esi
  401d51:	bf 01 00 00 00       	mov    $0x1,%edi
  401d56:	b8 00 00 00 00       	mov    $0x0,%eax
  401d5b:	e8 c0 f0 ff ff       	callq  400e20 <__printf_chk@plt>
  401d60:	48 8b 15 11 34 20 00 	mov    0x203411(%rip),%rdx        # 605178 <course>
  401d67:	be 41 34 40 00       	mov    $0x403441,%esi
  401d6c:	bf 01 00 00 00       	mov    $0x1,%edi
  401d71:	b8 00 00 00 00       	mov    $0x0,%eax
  401d76:	e8 a5 f0 ff ff       	callq  400e20 <__printf_chk@plt>
  401d7b:	48 8b 15 ee 33 20 00 	mov    0x2033ee(%rip),%rdx        # 605170 <lab>
  401d82:	be 4d 34 40 00       	mov    $0x40344d,%esi
  401d87:	bf 01 00 00 00       	mov    $0x1,%edi
  401d8c:	b8 00 00 00 00       	mov    $0x0,%eax
  401d91:	e8 8a f0 ff ff       	callq  400e20 <__printf_chk@plt>
  401d96:	48 89 e2             	mov    %rsp,%rdx
  401d99:	be 56 34 40 00       	mov    $0x403456,%esi
  401d9e:	bf 01 00 00 00       	mov    $0x1,%edi
  401da3:	b8 00 00 00 00       	mov    $0x0,%eax
  401da8:	e8 73 f0 ff ff       	callq  400e20 <__printf_chk@plt>
  401dad:	48 8b 84 24 08 40 00 	mov    0x4008(%rsp),%rax
  401db4:	00 
  401db5:	64 48 33 04 25 28 00 	xor    %fs:0x28,%rax
  401dbc:	00 00 
  401dbe:	74 05                	je     401dc5 <notify_server+0x1ea>
  401dc0:	e8 4b ef ff ff       	callq  400d10 <__stack_chk_fail@plt>
  401dc5:	48 81 c4 10 40 00 00 	add    $0x4010,%rsp
  401dcc:	5b                   	pop    %rbx
  401dcd:	c3                   	retq   

0000000000401dce <validate>:
  401dce:	53                   	push   %rbx
  401dcf:	89 fb                	mov    %edi,%ebx
  401dd1:	83 3d 50 37 20 00 00 	cmpl   $0x0,0x203750(%rip)        # 605528 <is_checker>
  401dd8:	74 6b                	je     401e45 <validate+0x77>
  401dda:	39 3d 3c 37 20 00    	cmp    %edi,0x20373c(%rip)        # 60551c <vlevel>
  401de0:	74 14                	je     401df6 <validate+0x28>
  401de2:	bf 62 34 40 00       	mov    $0x403462,%edi
  401de7:	e8 04 ef ff ff       	callq  400cf0 <puts@plt>
  401dec:	b8 00 00 00 00       	mov    $0x0,%eax
  401df1:	e8 5e fd ff ff       	callq  401b54 <check_fail>
  401df6:	8b 15 1c 37 20 00    	mov    0x20371c(%rip),%edx        # 605518 <check_level>
  401dfc:	39 d7                	cmp    %edx,%edi
  401dfe:	74 20                	je     401e20 <validate+0x52>
  401e00:	89 f9                	mov    %edi,%ecx
  401e02:	be a0 35 40 00       	mov    $0x4035a0,%esi
  401e07:	bf 01 00 00 00       	mov    $0x1,%edi
  401e0c:	b8 00 00 00 00       	mov    $0x0,%eax
  401e11:	e8 0a f0 ff ff       	callq  400e20 <__printf_chk@plt>
  401e16:	b8 00 00 00 00       	mov    $0x0,%eax
  401e1b:	e8 34 fd ff ff       	callq  401b54 <check_fail>
  401e20:	0f be 15 21 43 20 00 	movsbl 0x204321(%rip),%edx        # 606148 <target_prefix>
  401e27:	41 b8 40 55 60 00    	mov    $0x605540,%r8d
  401e2d:	89 f9                	mov    %edi,%ecx
  401e2f:	be 80 34 40 00       	mov    $0x403480,%esi
  401e34:	bf 01 00 00 00       	mov    $0x1,%edi
  401e39:	b8 00 00 00 00       	mov    $0x0,%eax
  401e3e:	e8 dd ef ff ff       	callq  400e20 <__printf_chk@plt>
  401e43:	eb 49                	jmp    401e8e <validate+0xc0>
  401e45:	3b 3d d1 36 20 00    	cmp    0x2036d1(%rip),%edi        # 60551c <vlevel>
  401e4b:	74 18                	je     401e65 <validate+0x97>
  401e4d:	bf 62 34 40 00       	mov    $0x403462,%edi
  401e52:	e8 99 ee ff ff       	callq  400cf0 <puts@plt>
  401e57:	89 de                	mov    %ebx,%esi
  401e59:	bf 00 00 00 00       	mov    $0x0,%edi
  401e5e:	e8 78 fd ff ff       	callq  401bdb <notify_server>
  401e63:	eb 29                	jmp    401e8e <validate+0xc0>
  401e65:	0f be 0d dc 42 20 00 	movsbl 0x2042dc(%rip),%ecx        # 606148 <target_prefix>
  401e6c:	89 fa                	mov    %edi,%edx
  401e6e:	be c8 35 40 00       	mov    $0x4035c8,%esi
  401e73:	bf 01 00 00 00       	mov    $0x1,%edi
  401e78:	b8 00 00 00 00       	mov    $0x0,%eax
  401e7d:	e8 9e ef ff ff       	callq  400e20 <__printf_chk@plt>
  401e82:	89 de                	mov    %ebx,%esi
  401e84:	bf 01 00 00 00       	mov    $0x1,%edi
  401e89:	e8 4d fd ff ff       	callq  401bdb <notify_server>
  401e8e:	5b                   	pop    %rbx
  401e8f:	c3                   	retq   

0000000000401e90 <fail>:
  401e90:	48 83 ec 08          	sub    $0x8,%rsp
  401e94:	83 3d 8d 36 20 00 00 	cmpl   $0x0,0x20368d(%rip)        # 605528 <is_checker>
  401e9b:	74 0a                	je     401ea7 <fail+0x17>
  401e9d:	b8 00 00 00 00       	mov    $0x0,%eax
  401ea2:	e8 ad fc ff ff       	callq  401b54 <check_fail>
  401ea7:	89 fe                	mov    %edi,%esi
  401ea9:	bf 00 00 00 00       	mov    $0x0,%edi
  401eae:	e8 28 fd ff ff       	callq  401bdb <notify_server>
  401eb3:	48 83 c4 08          	add    $0x8,%rsp
  401eb7:	c3                   	retq   

0000000000401eb8 <bushandler>:
  401eb8:	48 83 ec 08          	sub    $0x8,%rsp
  401ebc:	83 3d 65 36 20 00 00 	cmpl   $0x0,0x203665(%rip)        # 605528 <is_checker>
  401ec3:	74 14                	je     401ed9 <bushandler+0x21>
  401ec5:	bf 95 34 40 00       	mov    $0x403495,%edi
  401eca:	e8 21 ee ff ff       	callq  400cf0 <puts@plt>
  401ecf:	b8 00 00 00 00       	mov    $0x0,%eax
  401ed4:	e8 7b fc ff ff       	callq  401b54 <check_fail>
  401ed9:	bf 00 36 40 00       	mov    $0x403600,%edi
  401ede:	e8 0d ee ff ff       	callq  400cf0 <puts@plt>
  401ee3:	bf 9f 34 40 00       	mov    $0x40349f,%edi
  401ee8:	e8 03 ee ff ff       	callq  400cf0 <puts@plt>
  401eed:	be 00 00 00 00       	mov    $0x0,%esi
  401ef2:	bf 00 00 00 00       	mov    $0x0,%edi
  401ef7:	e8 df fc ff ff       	callq  401bdb <notify_server>
  401efc:	bf 01 00 00 00       	mov    $0x1,%edi
  401f01:	e8 6a ef ff ff       	callq  400e70 <exit@plt>

0000000000401f06 <seghandler>:
  401f06:	48 83 ec 08          	sub    $0x8,%rsp
  401f0a:	83 3d 17 36 20 00 00 	cmpl   $0x0,0x203617(%rip)        # 605528 <is_checker>
  401f11:	74 14                	je     401f27 <seghandler+0x21>
  401f13:	bf b5 34 40 00       	mov    $0x4034b5,%edi
  401f18:	e8 d3 ed ff ff       	callq  400cf0 <puts@plt>
  401f1d:	b8 00 00 00 00       	mov    $0x0,%eax
  401f22:	e8 2d fc ff ff       	callq  401b54 <check_fail>
  401f27:	bf 20 36 40 00       	mov    $0x403620,%edi
  401f2c:	e8 bf ed ff ff       	callq  400cf0 <puts@plt>
  401f31:	bf 9f 34 40 00       	mov    $0x40349f,%edi
  401f36:	e8 b5 ed ff ff       	callq  400cf0 <puts@plt>
  401f3b:	be 00 00 00 00       	mov    $0x0,%esi
  401f40:	bf 00 00 00 00       	mov    $0x0,%edi
  401f45:	e8 91 fc ff ff       	callq  401bdb <notify_server>
  401f4a:	bf 01 00 00 00       	mov    $0x1,%edi
  401f4f:	e8 1c ef ff ff       	callq  400e70 <exit@plt>

0000000000401f54 <illegalhandler>:
  401f54:	48 83 ec 08          	sub    $0x8,%rsp
  401f58:	83 3d c9 35 20 00 00 	cmpl   $0x0,0x2035c9(%rip)        # 605528 <is_checker>
  401f5f:	74 14                	je     401f75 <illegalhandler+0x21>
  401f61:	bf c8 34 40 00       	mov    $0x4034c8,%edi
  401f66:	e8 85 ed ff ff       	callq  400cf0 <puts@plt>
  401f6b:	b8 00 00 00 00       	mov    $0x0,%eax
  401f70:	e8 df fb ff ff       	callq  401b54 <check_fail>
  401f75:	bf 48 36 40 00       	mov    $0x403648,%edi
  401f7a:	e8 71 ed ff ff       	callq  400cf0 <puts@plt>
  401f7f:	bf 9f 34 40 00       	mov    $0x40349f,%edi
  401f84:	e8 67 ed ff ff       	callq  400cf0 <puts@plt>
  401f89:	be 00 00 00 00       	mov    $0x0,%esi
  401f8e:	bf 00 00 00 00       	mov    $0x0,%edi
  401f93:	e8 43 fc ff ff       	callq  401bdb <notify_server>
  401f98:	bf 01 00 00 00       	mov    $0x1,%edi
  401f9d:	e8 ce ee ff ff       	callq  400e70 <exit@plt>

0000000000401fa2 <sigalrmhandler>:
  401fa2:	48 83 ec 08          	sub    $0x8,%rsp
  401fa6:	83 3d 7b 35 20 00 00 	cmpl   $0x0,0x20357b(%rip)        # 605528 <is_checker>
  401fad:	74 14                	je     401fc3 <sigalrmhandler+0x21>
  401faf:	bf dc 34 40 00       	mov    $0x4034dc,%edi
  401fb4:	e8 37 ed ff ff       	callq  400cf0 <puts@plt>
  401fb9:	b8 00 00 00 00       	mov    $0x0,%eax
  401fbe:	e8 91 fb ff ff       	callq  401b54 <check_fail>
  401fc3:	ba 05 00 00 00       	mov    $0x5,%edx
  401fc8:	be 78 36 40 00       	mov    $0x403678,%esi
  401fcd:	bf 01 00 00 00       	mov    $0x1,%edi
  401fd2:	b8 00 00 00 00       	mov    $0x0,%eax
  401fd7:	e8 44 ee ff ff       	callq  400e20 <__printf_chk@plt>
  401fdc:	be 00 00 00 00       	mov    $0x0,%esi
  401fe1:	bf 00 00 00 00       	mov    $0x0,%edi
  401fe6:	e8 f0 fb ff ff       	callq  401bdb <notify_server>
  401feb:	bf 01 00 00 00       	mov    $0x1,%edi
  401ff0:	e8 7b ee ff ff       	callq  400e70 <exit@plt>

0000000000401ff5 <launch>:
  401ff5:	55                   	push   %rbp
  401ff6:	48 89 e5             	mov    %rsp,%rbp
  401ff9:	48 83 ec 10          	sub    $0x10,%rsp
  401ffd:	48 89 fa             	mov    %rdi,%rdx
  402000:	64 48 8b 04 25 28 00 	mov    %fs:0x28,%rax
  402007:	00 00 
  402009:	48 89 45 f8          	mov    %rax,-0x8(%rbp)
  40200d:	31 c0                	xor    %eax,%eax
  40200f:	48 8d 47 1e          	lea    0x1e(%rdi),%rax
  402013:	48 83 e0 f0          	and    $0xfffffffffffffff0,%rax
  402017:	48 29 c4             	sub    %rax,%rsp
  40201a:	48 8d 7c 24 0f       	lea    0xf(%rsp),%rdi
  40201f:	48 83 e7 f0          	and    $0xfffffffffffffff0,%rdi
  402023:	be f4 00 00 00       	mov    $0xf4,%esi
  402028:	e8 03 ed ff ff       	callq  400d30 <memset@plt>
  40202d:	48 8b 05 8c 34 20 00 	mov    0x20348c(%rip),%rax        # 6054c0 <stdin@@GLIBC_2.2.5>
  402034:	48 39 05 d5 34 20 00 	cmp    %rax,0x2034d5(%rip)        # 605510 <infile>
  40203b:	75 14                	jne    402051 <launch+0x5c>
  40203d:	be e4 34 40 00       	mov    $0x4034e4,%esi
  402042:	bf 01 00 00 00       	mov    $0x1,%edi
  402047:	b8 00 00 00 00       	mov    $0x0,%eax
  40204c:	e8 cf ed ff ff       	callq  400e20 <__printf_chk@plt>
  402051:	c7 05 c1 34 20 00 00 	movl   $0x0,0x2034c1(%rip)        # 60551c <vlevel>
  402058:	00 00 00 
  40205b:	b8 00 00 00 00       	mov    $0x0,%eax
  402060:	e8 5b fa ff ff       	callq  401ac0 <test>
  402065:	83 3d bc 34 20 00 00 	cmpl   $0x0,0x2034bc(%rip)        # 605528 <is_checker>
  40206c:	74 14                	je     402082 <launch+0x8d>
  40206e:	bf f1 34 40 00       	mov    $0x4034f1,%edi
  402073:	e8 78 ec ff ff       	callq  400cf0 <puts@plt>
  402078:	b8 00 00 00 00       	mov    $0x0,%eax
  40207d:	e8 d2 fa ff ff       	callq  401b54 <check_fail>
  402082:	bf fc 34 40 00       	mov    $0x4034fc,%edi
  402087:	e8 64 ec ff ff       	callq  400cf0 <puts@plt>
  40208c:	48 8b 45 f8          	mov    -0x8(%rbp),%rax
  402090:	64 48 33 04 25 28 00 	xor    %fs:0x28,%rax
  402097:	00 00 
  402099:	74 05                	je     4020a0 <launch+0xab>
  40209b:	e8 70 ec ff ff       	callq  400d10 <__stack_chk_fail@plt>
  4020a0:	c9                   	leaveq 
  4020a1:	c3                   	retq   

00000000004020a2 <stable_launch>:
  4020a2:	53                   	push   %rbx
  4020a3:	48 89 3d 5e 34 20 00 	mov    %rdi,0x20345e(%rip)        # 605508 <global_offset>
  4020aa:	41 b9 00 00 00 00    	mov    $0x0,%r9d
  4020b0:	41 b8 00 00 00 00    	mov    $0x0,%r8d
  4020b6:	b9 32 01 00 00       	mov    $0x132,%ecx
  4020bb:	ba 07 00 00 00       	mov    $0x7,%edx
  4020c0:	be 00 00 10 00       	mov    $0x100000,%esi
  4020c5:	bf 00 60 58 55       	mov    $0x55586000,%edi
  4020ca:	e8 51 ec ff ff       	callq  400d20 <mmap@plt>
  4020cf:	48 89 c3             	mov    %rax,%rbx
  4020d2:	48 3d 00 60 58 55    	cmp    $0x55586000,%rax
  4020d8:	74 37                	je     402111 <stable_launch+0x6f>
  4020da:	be 00 00 10 00       	mov    $0x100000,%esi
  4020df:	48 89 c7             	mov    %rax,%rdi
  4020e2:	e8 29 ed ff ff       	callq  400e10 <munmap@plt>
  4020e7:	b9 00 60 58 55       	mov    $0x55586000,%ecx
  4020ec:	ba b0 36 40 00       	mov    $0x4036b0,%edx
  4020f1:	be 01 00 00 00       	mov    $0x1,%esi
  4020f6:	48 8b 3d e3 33 20 00 	mov    0x2033e3(%rip),%rdi        # 6054e0 <stderr@@GLIBC_2.2.5>
  4020fd:	b8 00 00 00 00       	mov    $0x0,%eax
  402102:	e8 89 ed ff ff       	callq  400e90 <__fprintf_chk@plt>
  402107:	bf 01 00 00 00       	mov    $0x1,%edi
  40210c:	e8 5f ed ff ff       	callq  400e70 <exit@plt>
  402111:	48 8d 90 f8 ff 0f 00 	lea    0xffff8(%rax),%rdx
  402118:	48 89 15 31 40 20 00 	mov    %rdx,0x204031(%rip)        # 606150 <stack_top>
  40211f:	48 89 e0             	mov    %rsp,%rax
  402122:	48 89 d4             	mov    %rdx,%rsp
  402125:	48 89 c2             	mov    %rax,%rdx
  402128:	48 89 15 d1 33 20 00 	mov    %rdx,0x2033d1(%rip)        # 605500 <global_save_stack>
  40212f:	48 8b 3d d2 33 20 00 	mov    0x2033d2(%rip),%rdi        # 605508 <global_offset>
  402136:	e8 ba fe ff ff       	callq  401ff5 <launch>
  40213b:	48 8b 05 be 33 20 00 	mov    0x2033be(%rip),%rax        # 605500 <global_save_stack>
  402142:	48 89 c4             	mov    %rax,%rsp
  402145:	be 00 00 10 00       	mov    $0x100000,%esi
  40214a:	48 89 df             	mov    %rbx,%rdi
  40214d:	e8 be ec ff ff       	callq  400e10 <munmap@plt>
  402152:	5b                   	pop    %rbx
  402153:	c3                   	retq   

0000000000402154 <rio_readinitb>:
  402154:	89 37                	mov    %esi,(%rdi)
  402156:	c7 47 04 00 00 00 00 	movl   $0x0,0x4(%rdi)
  40215d:	48 8d 47 10          	lea    0x10(%rdi),%rax
  402161:	48 89 47 08          	mov    %rax,0x8(%rdi)
  402165:	c3                   	retq   

0000000000402166 <sigalrm_handler>:
  402166:	48 83 ec 08          	sub    $0x8,%rsp
  40216a:	b9 00 00 00 00       	mov    $0x0,%ecx
  40216f:	ba f0 36 40 00       	mov    $0x4036f0,%edx
  402174:	be 01 00 00 00       	mov    $0x1,%esi
  402179:	48 8b 3d 60 33 20 00 	mov    0x203360(%rip),%rdi        # 6054e0 <stderr@@GLIBC_2.2.5>
  402180:	b8 00 00 00 00       	mov    $0x0,%eax
  402185:	e8 06 ed ff ff       	callq  400e90 <__fprintf_chk@plt>
  40218a:	bf 01 00 00 00       	mov    $0x1,%edi
  40218f:	e8 dc ec ff ff       	callq  400e70 <exit@plt>

0000000000402194 <rio_writen>:
  402194:	41 55                	push   %r13
  402196:	41 54                	push   %r12
  402198:	55                   	push   %rbp
  402199:	53                   	push   %rbx
  40219a:	48 83 ec 08          	sub    $0x8,%rsp
  40219e:	41 89 fc             	mov    %edi,%r12d
  4021a1:	48 89 f5             	mov    %rsi,%rbp
  4021a4:	49 89 d5             	mov    %rdx,%r13
  4021a7:	48 89 d3             	mov    %rdx,%rbx
  4021aa:	eb 28                	jmp    4021d4 <rio_writen+0x40>
  4021ac:	48 89 da             	mov    %rbx,%rdx
  4021af:	48 89 ee             	mov    %rbp,%rsi
  4021b2:	44 89 e7             	mov    %r12d,%edi
  4021b5:	e8 46 eb ff ff       	callq  400d00 <write@plt>
  4021ba:	48 85 c0             	test   %rax,%rax
  4021bd:	7f 0f                	jg     4021ce <rio_writen+0x3a>
  4021bf:	e8 ec ea ff ff       	callq  400cb0 <__errno_location@plt>
  4021c4:	83 38 04             	cmpl   $0x4,(%rax)
  4021c7:	75 15                	jne    4021de <rio_writen+0x4a>
  4021c9:	b8 00 00 00 00       	mov    $0x0,%eax
  4021ce:	48 29 c3             	sub    %rax,%rbx
  4021d1:	48 01 c5             	add    %rax,%rbp
  4021d4:	48 85 db             	test   %rbx,%rbx
  4021d7:	75 d3                	jne    4021ac <rio_writen+0x18>
  4021d9:	4c 89 e8             	mov    %r13,%rax
  4021dc:	eb 07                	jmp    4021e5 <rio_writen+0x51>
  4021de:	48 c7 c0 ff ff ff ff 	mov    $0xffffffffffffffff,%rax
  4021e5:	48 83 c4 08          	add    $0x8,%rsp
  4021e9:	5b                   	pop    %rbx
  4021ea:	5d                   	pop    %rbp
  4021eb:	41 5c                	pop    %r12
  4021ed:	41 5d                	pop    %r13
  4021ef:	c3                   	retq   

00000000004021f0 <rio_read>:
  4021f0:	41 55                	push   %r13
  4021f2:	41 54                	push   %r12
  4021f4:	55                   	push   %rbp
  4021f5:	53                   	push   %rbx
  4021f6:	48 83 ec 08          	sub    $0x8,%rsp
  4021fa:	48 89 fb             	mov    %rdi,%rbx
  4021fd:	49 89 f5             	mov    %rsi,%r13
  402200:	49 89 d4             	mov    %rdx,%r12
  402203:	eb 2e                	jmp    402233 <rio_read+0x43>
  402205:	48 8d 6b 10          	lea    0x10(%rbx),%rbp
  402209:	8b 3b                	mov    (%rbx),%edi
  40220b:	ba 00 20 00 00       	mov    $0x2000,%edx
  402210:	48 89 ee             	mov    %rbp,%rsi
  402213:	e8 48 eb ff ff       	callq  400d60 <read@plt>
  402218:	89 43 04             	mov    %eax,0x4(%rbx)
  40221b:	85 c0                	test   %eax,%eax
  40221d:	79 0c                	jns    40222b <rio_read+0x3b>
  40221f:	e8 8c ea ff ff       	callq  400cb0 <__errno_location@plt>
  402224:	83 38 04             	cmpl   $0x4,(%rax)
  402227:	74 0a                	je     402233 <rio_read+0x43>
  402229:	eb 37                	jmp    402262 <rio_read+0x72>
  40222b:	85 c0                	test   %eax,%eax
  40222d:	74 3c                	je     40226b <rio_read+0x7b>
  40222f:	48 89 6b 08          	mov    %rbp,0x8(%rbx)
  402233:	8b 6b 04             	mov    0x4(%rbx),%ebp
  402236:	85 ed                	test   %ebp,%ebp
  402238:	7e cb                	jle    402205 <rio_read+0x15>
  40223a:	89 e8                	mov    %ebp,%eax
  40223c:	49 39 c4             	cmp    %rax,%r12
  40223f:	77 03                	ja     402244 <rio_read+0x54>
  402241:	44 89 e5             	mov    %r12d,%ebp
  402244:	4c 63 e5             	movslq %ebp,%r12
  402247:	48 8b 73 08          	mov    0x8(%rbx),%rsi
  40224b:	4c 89 e2             	mov    %r12,%rdx
  40224e:	4c 89 ef             	mov    %r13,%rdi
  402251:	e8 6a eb ff ff       	callq  400dc0 <memcpy@plt>
  402256:	4c 01 63 08          	add    %r12,0x8(%rbx)
  40225a:	29 6b 04             	sub    %ebp,0x4(%rbx)
  40225d:	4c 89 e0             	mov    %r12,%rax
  402260:	eb 0e                	jmp    402270 <rio_read+0x80>
  402262:	48 c7 c0 ff ff ff ff 	mov    $0xffffffffffffffff,%rax
  402269:	eb 05                	jmp    402270 <rio_read+0x80>
  40226b:	b8 00 00 00 00       	mov    $0x0,%eax
  402270:	48 83 c4 08          	add    $0x8,%rsp
  402274:	5b                   	pop    %rbx
  402275:	5d                   	pop    %rbp
  402276:	41 5c                	pop    %r12
  402278:	41 5d                	pop    %r13
  40227a:	c3                   	retq   

000000000040227b <rio_readlineb>:
  40227b:	41 55                	push   %r13
  40227d:	41 54                	push   %r12
  40227f:	55                   	push   %rbp
  402280:	53                   	push   %rbx
  402281:	48 83 ec 18          	sub    $0x18,%rsp
  402285:	49 89 fd             	mov    %rdi,%r13
  402288:	48 89 f5             	mov    %rsi,%rbp
  40228b:	49 89 d4             	mov    %rdx,%r12
  40228e:	64 48 8b 04 25 28 00 	mov    %fs:0x28,%rax
  402295:	00 00 
  402297:	48 89 44 24 08       	mov    %rax,0x8(%rsp)
  40229c:	31 c0                	xor    %eax,%eax
  40229e:	bb 01 00 00 00       	mov    $0x1,%ebx
  4022a3:	eb 3f                	jmp    4022e4 <rio_readlineb+0x69>
  4022a5:	ba 01 00 00 00       	mov    $0x1,%edx
  4022aa:	48 8d 74 24 07       	lea    0x7(%rsp),%rsi
  4022af:	4c 89 ef             	mov    %r13,%rdi
  4022b2:	e8 39 ff ff ff       	callq  4021f0 <rio_read>
  4022b7:	83 f8 01             	cmp    $0x1,%eax
  4022ba:	75 15                	jne    4022d1 <rio_readlineb+0x56>
  4022bc:	48 8d 45 01          	lea    0x1(%rbp),%rax
  4022c0:	0f b6 54 24 07       	movzbl 0x7(%rsp),%edx
  4022c5:	88 55 00             	mov    %dl,0x0(%rbp)
  4022c8:	80 7c 24 07 0a       	cmpb   $0xa,0x7(%rsp)
  4022cd:	75 0e                	jne    4022dd <rio_readlineb+0x62>
  4022cf:	eb 1a                	jmp    4022eb <rio_readlineb+0x70>
  4022d1:	85 c0                	test   %eax,%eax
  4022d3:	75 22                	jne    4022f7 <rio_readlineb+0x7c>
  4022d5:	48 83 fb 01          	cmp    $0x1,%rbx
  4022d9:	75 13                	jne    4022ee <rio_readlineb+0x73>
  4022db:	eb 23                	jmp    402300 <rio_readlineb+0x85>
  4022dd:	48 83 c3 01          	add    $0x1,%rbx
  4022e1:	48 89 c5             	mov    %rax,%rbp
  4022e4:	4c 39 e3             	cmp    %r12,%rbx
  4022e7:	72 bc                	jb     4022a5 <rio_readlineb+0x2a>
  4022e9:	eb 03                	jmp    4022ee <rio_readlineb+0x73>
  4022eb:	48 89 c5             	mov    %rax,%rbp
  4022ee:	c6 45 00 00          	movb   $0x0,0x0(%rbp)
  4022f2:	48 89 d8             	mov    %rbx,%rax
  4022f5:	eb 0e                	jmp    402305 <rio_readlineb+0x8a>
  4022f7:	48 c7 c0 ff ff ff ff 	mov    $0xffffffffffffffff,%rax
  4022fe:	eb 05                	jmp    402305 <rio_readlineb+0x8a>
  402300:	b8 00 00 00 00       	mov    $0x0,%eax
  402305:	48 8b 4c 24 08       	mov    0x8(%rsp),%rcx
  40230a:	64 48 33 0c 25 28 00 	xor    %fs:0x28,%rcx
  402311:	00 00 
  402313:	74 05                	je     40231a <rio_readlineb+0x9f>
  402315:	e8 f6 e9 ff ff       	callq  400d10 <__stack_chk_fail@plt>
  40231a:	48 83 c4 18          	add    $0x18,%rsp
  40231e:	5b                   	pop    %rbx
  40231f:	5d                   	pop    %rbp
  402320:	41 5c                	pop    %r12
  402322:	41 5d                	pop    %r13
  402324:	c3                   	retq   

0000000000402325 <urlencode>:
  402325:	41 54                	push   %r12
  402327:	55                   	push   %rbp
  402328:	53                   	push   %rbx
  402329:	48 83 ec 10          	sub    $0x10,%rsp
  40232d:	48 89 fb             	mov    %rdi,%rbx
  402330:	48 89 f5             	mov    %rsi,%rbp
  402333:	64 48 8b 04 25 28 00 	mov    %fs:0x28,%rax
  40233a:	00 00 
  40233c:	48 89 44 24 08       	mov    %rax,0x8(%rsp)
  402341:	31 c0                	xor    %eax,%eax
  402343:	48 c7 c1 ff ff ff ff 	mov    $0xffffffffffffffff,%rcx
  40234a:	f2 ae                	repnz scas %es:(%rdi),%al
  40234c:	48 f7 d1             	not    %rcx
  40234f:	8d 41 ff             	lea    -0x1(%rcx),%eax
  402352:	e9 aa 00 00 00       	jmpq   402401 <urlencode+0xdc>
  402357:	44 0f b6 03          	movzbl (%rbx),%r8d
  40235b:	41 80 f8 2a          	cmp    $0x2a,%r8b
  40235f:	0f 94 c2             	sete   %dl
  402362:	41 80 f8 2d          	cmp    $0x2d,%r8b
  402366:	0f 94 c0             	sete   %al
  402369:	08 c2                	or     %al,%dl
  40236b:	75 24                	jne    402391 <urlencode+0x6c>
  40236d:	41 80 f8 2e          	cmp    $0x2e,%r8b
  402371:	74 1e                	je     402391 <urlencode+0x6c>
  402373:	41 80 f8 5f          	cmp    $0x5f,%r8b
  402377:	74 18                	je     402391 <urlencode+0x6c>
  402379:	41 8d 40 d0          	lea    -0x30(%r8),%eax
  40237d:	3c 09                	cmp    $0x9,%al
  40237f:	76 10                	jbe    402391 <urlencode+0x6c>
  402381:	41 8d 40 bf          	lea    -0x41(%r8),%eax
  402385:	3c 19                	cmp    $0x19,%al
  402387:	76 08                	jbe    402391 <urlencode+0x6c>
  402389:	41 8d 40 9f          	lea    -0x61(%r8),%eax
  40238d:	3c 19                	cmp    $0x19,%al
  40238f:	77 0a                	ja     40239b <urlencode+0x76>
  402391:	44 88 45 00          	mov    %r8b,0x0(%rbp)
  402395:	48 8d 6d 01          	lea    0x1(%rbp),%rbp
  402399:	eb 5f                	jmp    4023fa <urlencode+0xd5>
  40239b:	41 80 f8 20          	cmp    $0x20,%r8b
  40239f:	75 0a                	jne    4023ab <urlencode+0x86>
  4023a1:	c6 45 00 2b          	movb   $0x2b,0x0(%rbp)
  4023a5:	48 8d 6d 01          	lea    0x1(%rbp),%rbp
  4023a9:	eb 4f                	jmp    4023fa <urlencode+0xd5>
  4023ab:	41 8d 40 e0          	lea    -0x20(%r8),%eax
  4023af:	3c 5f                	cmp    $0x5f,%al
  4023b1:	0f 96 c2             	setbe  %dl
  4023b4:	41 80 f8 09          	cmp    $0x9,%r8b
  4023b8:	0f 94 c0             	sete   %al
  4023bb:	08 c2                	or     %al,%dl
  4023bd:	74 50                	je     40240f <urlencode+0xea>
  4023bf:	45 0f b6 c0          	movzbl %r8b,%r8d
  4023c3:	b9 a8 37 40 00       	mov    $0x4037a8,%ecx
  4023c8:	ba 08 00 00 00       	mov    $0x8,%edx
  4023cd:	be 01 00 00 00       	mov    $0x1,%esi
  4023d2:	48 89 e7             	mov    %rsp,%rdi
  4023d5:	b8 00 00 00 00       	mov    $0x0,%eax
  4023da:	e8 c1 ea ff ff       	callq  400ea0 <__sprintf_chk@plt>
  4023df:	0f b6 04 24          	movzbl (%rsp),%eax
  4023e3:	88 45 00             	mov    %al,0x0(%rbp)
  4023e6:	0f b6 44 24 01       	movzbl 0x1(%rsp),%eax
  4023eb:	88 45 01             	mov    %al,0x1(%rbp)
  4023ee:	0f b6 44 24 02       	movzbl 0x2(%rsp),%eax
  4023f3:	88 45 02             	mov    %al,0x2(%rbp)
  4023f6:	48 8d 6d 03          	lea    0x3(%rbp),%rbp
  4023fa:	48 83 c3 01          	add    $0x1,%rbx
  4023fe:	44 89 e0             	mov    %r12d,%eax
  402401:	44 8d 60 ff          	lea    -0x1(%rax),%r12d
  402405:	85 c0                	test   %eax,%eax
  402407:	0f 85 4a ff ff ff    	jne    402357 <urlencode+0x32>
  40240d:	eb 05                	jmp    402414 <urlencode+0xef>
  40240f:	b8 ff ff ff ff       	mov    $0xffffffff,%eax
  402414:	48 8b 74 24 08       	mov    0x8(%rsp),%rsi
  402419:	64 48 33 34 25 28 00 	xor    %fs:0x28,%rsi
  402420:	00 00 
  402422:	74 05                	je     402429 <urlencode+0x104>
  402424:	e8 e7 e8 ff ff       	callq  400d10 <__stack_chk_fail@plt>
  402429:	48 83 c4 10          	add    $0x10,%rsp
  40242d:	5b                   	pop    %rbx
  40242e:	5d                   	pop    %rbp
  40242f:	41 5c                	pop    %r12
  402431:	c3                   	retq   

0000000000402432 <submitr>:
  402432:	41 57                	push   %r15
  402434:	41 56                	push   %r14
  402436:	41 55                	push   %r13
  402438:	41 54                	push   %r12
  40243a:	55                   	push   %rbp
  40243b:	53                   	push   %rbx
  40243c:	48 81 ec 58 a0 00 00 	sub    $0xa058,%rsp
  402443:	49 89 fd             	mov    %rdi,%r13
  402446:	89 74 24 0c          	mov    %esi,0xc(%rsp)
  40244a:	48 89 14 24          	mov    %rdx,(%rsp)
  40244e:	49 89 ce             	mov    %rcx,%r14
  402451:	4d 89 c7             	mov    %r8,%r15
  402454:	4d 89 cc             	mov    %r9,%r12
  402457:	48 8b 9c 24 90 a0 00 	mov    0xa090(%rsp),%rbx
  40245e:	00 
  40245f:	64 48 8b 04 25 28 00 	mov    %fs:0x28,%rax
  402466:	00 00 
  402468:	48 89 84 24 48 a0 00 	mov    %rax,0xa048(%rsp)
  40246f:	00 
  402470:	31 c0                	xor    %eax,%eax
  402472:	c7 44 24 1c 00 00 00 	movl   $0x0,0x1c(%rsp)
  402479:	00 
  40247a:	ba 00 00 00 00       	mov    $0x0,%edx
  40247f:	be 01 00 00 00       	mov    $0x1,%esi
  402484:	bf 02 00 00 00       	mov    $0x2,%edi
  402489:	e8 22 ea ff ff       	callq  400eb0 <socket@plt>
  40248e:	85 c0                	test   %eax,%eax
  402490:	79 4e                	jns    4024e0 <submitr+0xae>
  402492:	48 b8 45 72 72 6f 72 	movabs $0x43203a726f727245,%rax
  402499:	3a 20 43 
  40249c:	48 89 03             	mov    %rax,(%rbx)
  40249f:	48 b8 6c 69 65 6e 74 	movabs $0x6e7520746e65696c,%rax
  4024a6:	20 75 6e 
  4024a9:	48 89 43 08          	mov    %rax,0x8(%rbx)
  4024ad:	48 b8 61 62 6c 65 20 	movabs $0x206f7420656c6261,%rax
  4024b4:	74 6f 20 
  4024b7:	48 89 43 10          	mov    %rax,0x10(%rbx)
  4024bb:	48 b8 63 72 65 61 74 	movabs $0x7320657461657263,%rax
  4024c2:	65 20 73 
  4024c5:	48 89 43 18          	mov    %rax,0x18(%rbx)
  4024c9:	c7 43 20 6f 63 6b 65 	movl   $0x656b636f,0x20(%rbx)
  4024d0:	66 c7 43 24 74 00    	movw   $0x74,0x24(%rbx)
  4024d6:	b8 ff ff ff ff       	mov    $0xffffffff,%eax
  4024db:	e9 b3 06 00 00       	jmpq   402b93 <submitr+0x761>
  4024e0:	89 c5                	mov    %eax,%ebp
  4024e2:	4c 89 ef             	mov    %r13,%rdi
  4024e5:	e8 a6 e8 ff ff       	callq  400d90 <gethostbyname@plt>
  4024ea:	48 85 c0             	test   %rax,%rax
  4024ed:	75 75                	jne    402564 <submitr+0x132>
  4024ef:	48 b8 45 72 72 6f 72 	movabs $0x44203a726f727245,%rax
  4024f6:	3a 20 44 
  4024f9:	48 89 03             	mov    %rax,(%rbx)
  4024fc:	48 b8 4e 53 20 69 73 	movabs $0x6e7520736920534e,%rax
  402503:	20 75 6e 
  402506:	48 89 43 08          	mov    %rax,0x8(%rbx)
  40250a:	48 b8 61 62 6c 65 20 	movabs $0x206f7420656c6261,%rax
  402511:	74 6f 20 
  402514:	48 89 43 10          	mov    %rax,0x10(%rbx)
  402518:	48 b8 72 65 73 6f 6c 	movabs $0x2065766c6f736572,%rax
  40251f:	76 65 20 
  402522:	48 89 43 18          	mov    %rax,0x18(%rbx)
  402526:	48 b8 41 75 74 6f 6c 	movabs $0x2062616c6f747541,%rax
  40252d:	61 62 20 
  402530:	48 89 43 20          	mov    %rax,0x20(%rbx)
  402534:	48 b8 73 65 72 76 65 	movabs $0x6120726576726573,%rax
  40253b:	72 20 61 
  40253e:	48 89 43 28          	mov    %rax,0x28(%rbx)
  402542:	c7 43 30 64 64 72 65 	movl   $0x65726464,0x30(%rbx)
  402549:	66 c7 43 34 73 73    	movw   $0x7373,0x34(%rbx)
  40254f:	c6 43 36 00          	movb   $0x0,0x36(%rbx)
  402553:	89 ef                	mov    %ebp,%edi
  402555:	e8 f6 e7 ff ff       	callq  400d50 <close@plt>
  40255a:	b8 ff ff ff ff       	mov    $0xffffffff,%eax
  40255f:	e9 2f 06 00 00       	jmpq   402b93 <submitr+0x761>
  402564:	48 c7 44 24 20 00 00 	movq   $0x0,0x20(%rsp)
  40256b:	00 00 
  40256d:	48 c7 44 24 28 00 00 	movq   $0x0,0x28(%rsp)
  402574:	00 00 
  402576:	66 c7 44 24 20 02 00 	movw   $0x2,0x20(%rsp)
  40257d:	48 63 50 14          	movslq 0x14(%rax),%rdx
  402581:	48 8b 40 18          	mov    0x18(%rax),%rax
  402585:	48 8b 30             	mov    (%rax),%rsi
  402588:	48 8d 7c 24 24       	lea    0x24(%rsp),%rdi
  40258d:	b9 0c 00 00 00       	mov    $0xc,%ecx
  402592:	e8 09 e8 ff ff       	callq  400da0 <__memmove_chk@plt>
  402597:	0f b7 44 24 0c       	movzwl 0xc(%rsp),%eax
  40259c:	66 c1 c8 08          	ror    $0x8,%ax
  4025a0:	66 89 44 24 22       	mov    %ax,0x22(%rsp)
  4025a5:	ba 10 00 00 00       	mov    $0x10,%edx
  4025aa:	48 8d 74 24 20       	lea    0x20(%rsp),%rsi
  4025af:	89 ef                	mov    %ebp,%edi
  4025b1:	e8 ca e8 ff ff       	callq  400e80 <connect@plt>
  4025b6:	85 c0                	test   %eax,%eax
  4025b8:	79 67                	jns    402621 <submitr+0x1ef>
  4025ba:	48 b8 45 72 72 6f 72 	movabs $0x55203a726f727245,%rax
  4025c1:	3a 20 55 
  4025c4:	48 89 03             	mov    %rax,(%rbx)
  4025c7:	48 b8 6e 61 62 6c 65 	movabs $0x6f7420656c62616e,%rax
  4025ce:	20 74 6f 
  4025d1:	48 89 43 08          	mov    %rax,0x8(%rbx)
  4025d5:	48 b8 20 63 6f 6e 6e 	movabs $0x7463656e6e6f6320,%rax
  4025dc:	65 63 74 
  4025df:	48 89 43 10          	mov    %rax,0x10(%rbx)
  4025e3:	48 b8 20 74 6f 20 74 	movabs $0x20656874206f7420,%rax
  4025ea:	68 65 20 
  4025ed:	48 89 43 18          	mov    %rax,0x18(%rbx)
  4025f1:	48 b8 41 75 74 6f 6c 	movabs $0x2062616c6f747541,%rax
  4025f8:	61 62 20 
  4025fb:	48 89 43 20          	mov    %rax,0x20(%rbx)
  4025ff:	c7 43 28 73 65 72 76 	movl   $0x76726573,0x28(%rbx)
  402606:	66 c7 43 2c 65 72    	movw   $0x7265,0x2c(%rbx)
  40260c:	c6 43 2e 00          	movb   $0x0,0x2e(%rbx)
  402610:	89 ef                	mov    %ebp,%edi
  402612:	e8 39 e7 ff ff       	callq  400d50 <close@plt>
  402617:	b8 ff ff ff ff       	mov    $0xffffffff,%eax
  40261c:	e9 72 05 00 00       	jmpq   402b93 <submitr+0x761>
  402621:	48 c7 c6 ff ff ff ff 	mov    $0xffffffffffffffff,%rsi
  402628:	b8 00 00 00 00       	mov    $0x0,%eax
  40262d:	48 89 f1             	mov    %rsi,%rcx
  402630:	4c 89 e7             	mov    %r12,%rdi
  402633:	f2 ae                	repnz scas %es:(%rdi),%al
  402635:	48 f7 d1             	not    %rcx
  402638:	48 89 ca             	mov    %rcx,%rdx
  40263b:	48 89 f1             	mov    %rsi,%rcx
  40263e:	48 8b 3c 24          	mov    (%rsp),%rdi
  402642:	f2 ae                	repnz scas %es:(%rdi),%al
  402644:	48 f7 d1             	not    %rcx
  402647:	49 89 c8             	mov    %rcx,%r8
  40264a:	48 89 f1             	mov    %rsi,%rcx
  40264d:	4c 89 f7             	mov    %r14,%rdi
  402650:	f2 ae                	repnz scas %es:(%rdi),%al
  402652:	48 f7 d1             	not    %rcx
  402655:	4d 8d 44 08 fe       	lea    -0x2(%r8,%rcx,1),%r8
  40265a:	48 89 f1             	mov    %rsi,%rcx
  40265d:	4c 89 ff             	mov    %r15,%rdi
  402660:	f2 ae                	repnz scas %es:(%rdi),%al
  402662:	48 89 c8             	mov    %rcx,%rax
  402665:	48 f7 d0             	not    %rax
  402668:	49 8d 4c 00 ff       	lea    -0x1(%r8,%rax,1),%rcx
  40266d:	48 8d 44 52 fd       	lea    -0x3(%rdx,%rdx,2),%rax
  402672:	48 8d 84 01 80 00 00 	lea    0x80(%rcx,%rax,1),%rax
  402679:	00 
  40267a:	48 3d 00 20 00 00    	cmp    $0x2000,%rax
  402680:	76 72                	jbe    4026f4 <submitr+0x2c2>
  402682:	48 b8 45 72 72 6f 72 	movabs $0x52203a726f727245,%rax
  402689:	3a 20 52 
  40268c:	48 89 03             	mov    %rax,(%rbx)
  40268f:	48 b8 65 73 75 6c 74 	movabs $0x747320746c757365,%rax
  402696:	20 73 74 
  402699:	48 89 43 08          	mov    %rax,0x8(%rbx)
  40269d:	48 b8 72 69 6e 67 20 	movabs $0x6f6f7420676e6972,%rax
  4026a4:	74 6f 6f 
  4026a7:	48 89 43 10          	mov    %rax,0x10(%rbx)
  4026ab:	48 b8 20 6c 61 72 67 	movabs $0x202e656772616c20,%rax
  4026b2:	65 2e 20 
  4026b5:	48 89 43 18          	mov    %rax,0x18(%rbx)
  4026b9:	48 b8 49 6e 63 72 65 	movabs $0x6573616572636e49,%rax
  4026c0:	61 73 65 
  4026c3:	48 89 43 20          	mov    %rax,0x20(%rbx)
  4026c7:	48 b8 20 53 55 42 4d 	movabs $0x5254494d42555320,%rax
  4026ce:	49 54 52 
  4026d1:	48 89 43 28          	mov    %rax,0x28(%rbx)
  4026d5:	48 b8 5f 4d 41 58 42 	movabs $0x46554258414d5f,%rax
  4026dc:	55 46 00 
  4026df:	48 89 43 30          	mov    %rax,0x30(%rbx)
  4026e3:	89 ef                	mov    %ebp,%edi
  4026e5:	e8 66 e6 ff ff       	callq  400d50 <close@plt>
  4026ea:	b8 ff ff ff ff       	mov    $0xffffffff,%eax
  4026ef:	e9 9f 04 00 00       	jmpq   402b93 <submitr+0x761>
  4026f4:	48 8d b4 24 40 40 00 	lea    0x4040(%rsp),%rsi
  4026fb:	00 
  4026fc:	b9 00 04 00 00       	mov    $0x400,%ecx
  402701:	b8 00 00 00 00       	mov    $0x0,%eax
  402706:	48 89 f7             	mov    %rsi,%rdi
  402709:	f3 48 ab             	rep stos %rax,%es:(%rdi)
  40270c:	4c 89 e7             	mov    %r12,%rdi
  40270f:	e8 11 fc ff ff       	callq  402325 <urlencode>
  402714:	85 c0                	test   %eax,%eax
  402716:	0f 89 8a 00 00 00    	jns    4027a6 <submitr+0x374>
  40271c:	48 b8 45 72 72 6f 72 	movabs $0x52203a726f727245,%rax
  402723:	3a 20 52 
  402726:	48 89 03             	mov    %rax,(%rbx)
  402729:	48 b8 65 73 75 6c 74 	movabs $0x747320746c757365,%rax
  402730:	20 73 74 
  402733:	48 89 43 08          	mov    %rax,0x8(%rbx)
  402737:	48 b8 72 69 6e 67 20 	movabs $0x6e6f6320676e6972,%rax
  40273e:	63 6f 6e 
  402741:	48 89 43 10          	mov    %rax,0x10(%rbx)
  402745:	48 b8 74 61 69 6e 73 	movabs $0x6e6120736e696174,%rax
  40274c:	20 61 6e 
  40274f:	48 89 43 18          	mov    %rax,0x18(%rbx)
  402753:	48 b8 20 69 6c 6c 65 	movabs $0x6c6167656c6c6920,%rax
  40275a:	67 61 6c 
  40275d:	48 89 43 20          	mov    %rax,0x20(%rbx)
  402761:	48 b8 20 6f 72 20 75 	movabs $0x72706e7520726f20,%rax
  402768:	6e 70 72 
  40276b:	48 89 43 28          	mov    %rax,0x28(%rbx)
  40276f:	48 b8 69 6e 74 61 62 	movabs $0x20656c6261746e69,%rax
  402776:	6c 65 20 
  402779:	48 89 43 30          	mov    %rax,0x30(%rbx)
  40277d:	48 b8 63 68 61 72 61 	movabs $0x6574636172616863,%rax
  402784:	63 74 65 
  402787:	48 89 43 38          	mov    %rax,0x38(%rbx)
  40278b:	66 c7 43 40 72 2e    	movw   $0x2e72,0x40(%rbx)
  402791:	c6 43 42 00          	movb   $0x0,0x42(%rbx)
  402795:	89 ef                	mov    %ebp,%edi
  402797:	e8 b4 e5 ff ff       	callq  400d50 <close@plt>
  40279c:	b8 ff ff ff ff       	mov    $0xffffffff,%eax
  4027a1:	e9 ed 03 00 00       	jmpq   402b93 <submitr+0x761>
  4027a6:	4c 8d a4 24 40 20 00 	lea    0x2040(%rsp),%r12
  4027ad:	00 
  4027ae:	48 83 ec 08          	sub    $0x8,%rsp
  4027b2:	41 55                	push   %r13
  4027b4:	48 8d 84 24 50 40 00 	lea    0x4050(%rsp),%rax
  4027bb:	00 
  4027bc:	50                   	push   %rax
  4027bd:	41 56                	push   %r14
  4027bf:	4d 89 f9             	mov    %r15,%r9
  4027c2:	4c 8b 44 24 20       	mov    0x20(%rsp),%r8
  4027c7:	b9 18 37 40 00       	mov    $0x403718,%ecx
  4027cc:	ba 00 20 00 00       	mov    $0x2000,%edx
  4027d1:	be 01 00 00 00       	mov    $0x1,%esi
  4027d6:	4c 89 e7             	mov    %r12,%rdi
  4027d9:	b8 00 00 00 00       	mov    $0x0,%eax
  4027de:	e8 bd e6 ff ff       	callq  400ea0 <__sprintf_chk@plt>
  4027e3:	b8 00 00 00 00       	mov    $0x0,%eax
  4027e8:	48 c7 c1 ff ff ff ff 	mov    $0xffffffffffffffff,%rcx
  4027ef:	4c 89 e7             	mov    %r12,%rdi
  4027f2:	f2 ae                	repnz scas %es:(%rdi),%al
  4027f4:	48 f7 d1             	not    %rcx
  4027f7:	48 8d 51 ff          	lea    -0x1(%rcx),%rdx
  4027fb:	48 83 c4 20          	add    $0x20,%rsp
  4027ff:	4c 89 e6             	mov    %r12,%rsi
  402802:	89 ef                	mov    %ebp,%edi
  402804:	e8 8b f9 ff ff       	callq  402194 <rio_writen>
  402809:	48 85 c0             	test   %rax,%rax
  40280c:	79 6b                	jns    402879 <submitr+0x447>
  40280e:	48 b8 45 72 72 6f 72 	movabs $0x43203a726f727245,%rax
  402815:	3a 20 43 
  402818:	48 89 03             	mov    %rax,(%rbx)
  40281b:	48 b8 6c 69 65 6e 74 	movabs $0x6e7520746e65696c,%rax
  402822:	20 75 6e 
  402825:	48 89 43 08          	mov    %rax,0x8(%rbx)
  402829:	48 b8 61 62 6c 65 20 	movabs $0x206f7420656c6261,%rax
  402830:	74 6f 20 
  402833:	48 89 43 10          	mov    %rax,0x10(%rbx)
  402837:	48 b8 77 72 69 74 65 	movabs $0x6f74206574697277,%rax
  40283e:	20 74 6f 
  402841:	48 89 43 18          	mov    %rax,0x18(%rbx)
  402845:	48 b8 20 74 68 65 20 	movabs $0x7475412065687420,%rax
  40284c:	41 75 74 
  40284f:	48 89 43 20          	mov    %rax,0x20(%rbx)
  402853:	48 b8 6f 6c 61 62 20 	movabs $0x7265732062616c6f,%rax
  40285a:	73 65 72 
  40285d:	48 89 43 28          	mov    %rax,0x28(%rbx)
  402861:	c7 43 30 76 65 72 00 	movl   $0x726576,0x30(%rbx)
  402868:	89 ef                	mov    %ebp,%edi
  40286a:	e8 e1 e4 ff ff       	callq  400d50 <close@plt>
  40286f:	b8 ff ff ff ff       	mov    $0xffffffff,%eax
  402874:	e9 1a 03 00 00       	jmpq   402b93 <submitr+0x761>
  402879:	89 ee                	mov    %ebp,%esi
  40287b:	48 8d 7c 24 30       	lea    0x30(%rsp),%rdi
  402880:	e8 cf f8 ff ff       	callq  402154 <rio_readinitb>
  402885:	ba 00 20 00 00       	mov    $0x2000,%edx
  40288a:	48 8d b4 24 40 20 00 	lea    0x2040(%rsp),%rsi
  402891:	00 
  402892:	48 8d 7c 24 30       	lea    0x30(%rsp),%rdi
  402897:	e8 df f9 ff ff       	callq  40227b <rio_readlineb>
  40289c:	48 85 c0             	test   %rax,%rax
  40289f:	7f 7f                	jg     402920 <submitr+0x4ee>
  4028a1:	48 b8 45 72 72 6f 72 	movabs $0x43203a726f727245,%rax
  4028a8:	3a 20 43 
  4028ab:	48 89 03             	mov    %rax,(%rbx)
  4028ae:	48 b8 6c 69 65 6e 74 	movabs $0x6e7520746e65696c,%rax
  4028b5:	20 75 6e 
  4028b8:	48 89 43 08          	mov    %rax,0x8(%rbx)
  4028bc:	48 b8 61 62 6c 65 20 	movabs $0x206f7420656c6261,%rax
  4028c3:	74 6f 20 
  4028c6:	48 89 43 10          	mov    %rax,0x10(%rbx)
  4028ca:	48 b8 72 65 61 64 20 	movabs $0x7269662064616572,%rax
  4028d1:	66 69 72 
  4028d4:	48 89 43 18          	mov    %rax,0x18(%rbx)
  4028d8:	48 b8 73 74 20 68 65 	movabs $0x6564616568207473,%rax
  4028df:	61 64 65 
  4028e2:	48 89 43 20          	mov    %rax,0x20(%rbx)
  4028e6:	48 b8 72 20 66 72 6f 	movabs $0x41206d6f72662072,%rax
  4028ed:	6d 20 41 
  4028f0:	48 89 43 28          	mov    %rax,0x28(%rbx)
  4028f4:	48 b8 75 74 6f 6c 61 	movabs $0x732062616c6f7475,%rax
  4028fb:	62 20 73 
  4028fe:	48 89 43 30          	mov    %rax,0x30(%rbx)
  402902:	c7 43 38 65 72 76 65 	movl   $0x65767265,0x38(%rbx)
  402909:	66 c7 43 3c 72 00    	movw   $0x72,0x3c(%rbx)
  40290f:	89 ef                	mov    %ebp,%edi
  402911:	e8 3a e4 ff ff       	callq  400d50 <close@plt>
  402916:	b8 ff ff ff ff       	mov    $0xffffffff,%eax
  40291b:	e9 73 02 00 00       	jmpq   402b93 <submitr+0x761>
  402920:	4c 8d 84 24 40 80 00 	lea    0x8040(%rsp),%r8
  402927:	00 
  402928:	48 8d 4c 24 1c       	lea    0x1c(%rsp),%rcx
  40292d:	48 8d 94 24 40 60 00 	lea    0x6040(%rsp),%rdx
  402934:	00 
  402935:	be af 37 40 00       	mov    $0x4037af,%esi
  40293a:	48 8d bc 24 40 20 00 	lea    0x2040(%rsp),%rdi
  402941:	00 
  402942:	b8 00 00 00 00       	mov    $0x0,%eax
  402947:	e8 b4 e4 ff ff       	callq  400e00 <__isoc99_sscanf@plt>
  40294c:	e9 92 00 00 00       	jmpq   4029e3 <submitr+0x5b1>
  402951:	ba 00 20 00 00       	mov    $0x2000,%edx
  402956:	48 8d b4 24 40 20 00 	lea    0x2040(%rsp),%rsi
  40295d:	00 
  40295e:	48 8d 7c 24 30       	lea    0x30(%rsp),%rdi
  402963:	e8 13 f9 ff ff       	callq  40227b <rio_readlineb>
  402968:	48 85 c0             	test   %rax,%rax
  40296b:	7f 76                	jg     4029e3 <submitr+0x5b1>
  40296d:	48 b8 45 72 72 6f 72 	movabs $0x43203a726f727245,%rax
  402974:	3a 20 43 
  402977:	48 89 03             	mov    %rax,(%rbx)
  40297a:	48 b8 6c 69 65 6e 74 	movabs $0x6e7520746e65696c,%rax
  402981:	20 75 6e 
  402984:	48 89 43 08          	mov    %rax,0x8(%rbx)
  402988:	48 b8 61 62 6c 65 20 	movabs $0x206f7420656c6261,%rax
  40298f:	74 6f 20 
  402992:	48 89 43 10          	mov    %rax,0x10(%rbx)
  402996:	48 b8 72 65 61 64 20 	movabs $0x6165682064616572,%rax
  40299d:	68 65 61 
  4029a0:	48 89 43 18          	mov    %rax,0x18(%rbx)
  4029a4:	48 b8 64 65 72 73 20 	movabs $0x6f72662073726564,%rax
  4029ab:	66 72 6f 
  4029ae:	48 89 43 20          	mov    %rax,0x20(%rbx)
  4029b2:	48 b8 6d 20 41 75 74 	movabs $0x616c6f747541206d,%rax
  4029b9:	6f 6c 61 
  4029bc:	48 89 43 28          	mov    %rax,0x28(%rbx)
  4029c0:	48 b8 62 20 73 65 72 	movabs $0x7265767265732062,%rax
  4029c7:	76 65 72 
  4029ca:	48 89 43 30          	mov    %rax,0x30(%rbx)
  4029ce:	c6 43 38 00          	movb   $0x0,0x38(%rbx)
  4029d2:	89 ef                	mov    %ebp,%edi
  4029d4:	e8 77 e3 ff ff       	callq  400d50 <close@plt>
  4029d9:	b8 ff ff ff ff       	mov    $0xffffffff,%eax
  4029de:	e9 b0 01 00 00       	jmpq   402b93 <submitr+0x761>
  4029e3:	0f b6 94 24 40 20 00 	movzbl 0x2040(%rsp),%edx
  4029ea:	00 
  4029eb:	b8 0d 00 00 00       	mov    $0xd,%eax
  4029f0:	29 d0                	sub    %edx,%eax
  4029f2:	75 1b                	jne    402a0f <submitr+0x5dd>
  4029f4:	0f b6 94 24 41 20 00 	movzbl 0x2041(%rsp),%edx
  4029fb:	00 
  4029fc:	b8 0a 00 00 00       	mov    $0xa,%eax
  402a01:	29 d0                	sub    %edx,%eax
  402a03:	75 0a                	jne    402a0f <submitr+0x5dd>
  402a05:	0f b6 84 24 42 20 00 	movzbl 0x2042(%rsp),%eax
  402a0c:	00 
  402a0d:	f7 d8                	neg    %eax
  402a0f:	85 c0                	test   %eax,%eax
  402a11:	0f 85 3a ff ff ff    	jne    402951 <submitr+0x51f>
  402a17:	ba 00 20 00 00       	mov    $0x2000,%edx
  402a1c:	48 8d b4 24 40 20 00 	lea    0x2040(%rsp),%rsi
  402a23:	00 
  402a24:	48 8d 7c 24 30       	lea    0x30(%rsp),%rdi
  402a29:	e8 4d f8 ff ff       	callq  40227b <rio_readlineb>
  402a2e:	48 85 c0             	test   %rax,%rax
  402a31:	0f 8f 80 00 00 00    	jg     402ab7 <submitr+0x685>
  402a37:	48 b8 45 72 72 6f 72 	movabs $0x43203a726f727245,%rax
  402a3e:	3a 20 43 
  402a41:	48 89 03             	mov    %rax,(%rbx)
  402a44:	48 b8 6c 69 65 6e 74 	movabs $0x6e7520746e65696c,%rax
  402a4b:	20 75 6e 
  402a4e:	48 89 43 08          	mov    %rax,0x8(%rbx)
  402a52:	48 b8 61 62 6c 65 20 	movabs $0x206f7420656c6261,%rax
  402a59:	74 6f 20 
  402a5c:	48 89 43 10          	mov    %rax,0x10(%rbx)
  402a60:	48 b8 72 65 61 64 20 	movabs $0x6174732064616572,%rax
  402a67:	73 74 61 
  402a6a:	48 89 43 18          	mov    %rax,0x18(%rbx)
  402a6e:	48 b8 74 75 73 20 6d 	movabs $0x7373656d20737574,%rax
  402a75:	65 73 73 
  402a78:	48 89 43 20          	mov    %rax,0x20(%rbx)
  402a7c:	48 b8 61 67 65 20 66 	movabs $0x6d6f726620656761,%rax
  402a83:	72 6f 6d 
  402a86:	48 89 43 28          	mov    %rax,0x28(%rbx)
  402a8a:	48 b8 20 41 75 74 6f 	movabs $0x62616c6f74754120,%rax
  402a91:	6c 61 62 
  402a94:	48 89 43 30          	mov    %rax,0x30(%rbx)
  402a98:	48 b8 20 73 65 72 76 	movabs $0x72657672657320,%rax
  402a9f:	65 72 00 
  402aa2:	48 89 43 38          	mov    %rax,0x38(%rbx)
  402aa6:	89 ef                	mov    %ebp,%edi
  402aa8:	e8 a3 e2 ff ff       	callq  400d50 <close@plt>
  402aad:	b8 ff ff ff ff       	mov    $0xffffffff,%eax
  402ab2:	e9 dc 00 00 00       	jmpq   402b93 <submitr+0x761>
  402ab7:	44 8b 44 24 1c       	mov    0x1c(%rsp),%r8d
  402abc:	41 81 f8 c8 00 00 00 	cmp    $0xc8,%r8d
  402ac3:	74 37                	je     402afc <submitr+0x6ca>
  402ac5:	4c 8d 8c 24 40 80 00 	lea    0x8040(%rsp),%r9
  402acc:	00 
  402acd:	b9 78 37 40 00       	mov    $0x403778,%ecx
  402ad2:	48 c7 c2 ff ff ff ff 	mov    $0xffffffffffffffff,%rdx
  402ad9:	be 01 00 00 00       	mov    $0x1,%esi
  402ade:	48 89 df             	mov    %rbx,%rdi
  402ae1:	b8 00 00 00 00       	mov    $0x0,%eax
  402ae6:	e8 b5 e3 ff ff       	callq  400ea0 <__sprintf_chk@plt>
  402aeb:	89 ef                	mov    %ebp,%edi
  402aed:	e8 5e e2 ff ff       	callq  400d50 <close@plt>
  402af2:	b8 ff ff ff ff       	mov    $0xffffffff,%eax
  402af7:	e9 97 00 00 00       	jmpq   402b93 <submitr+0x761>
  402afc:	48 8d b4 24 40 20 00 	lea    0x2040(%rsp),%rsi
  402b03:	00 
  402b04:	48 89 df             	mov    %rbx,%rdi
  402b07:	e8 d4 e1 ff ff       	callq  400ce0 <strcpy@plt>
  402b0c:	89 ef                	mov    %ebp,%edi
  402b0e:	e8 3d e2 ff ff       	callq  400d50 <close@plt>
  402b13:	0f b6 03             	movzbl (%rbx),%eax
  402b16:	ba 4f 00 00 00       	mov    $0x4f,%edx
  402b1b:	29 c2                	sub    %eax,%edx
  402b1d:	75 22                	jne    402b41 <submitr+0x70f>
  402b1f:	0f b6 4b 01          	movzbl 0x1(%rbx),%ecx
  402b23:	b8 4b 00 00 00       	mov    $0x4b,%eax
  402b28:	29 c8                	sub    %ecx,%eax
  402b2a:	75 17                	jne    402b43 <submitr+0x711>
  402b2c:	0f b6 4b 02          	movzbl 0x2(%rbx),%ecx
  402b30:	b8 0a 00 00 00       	mov    $0xa,%eax
  402b35:	29 c8                	sub    %ecx,%eax
  402b37:	75 0a                	jne    402b43 <submitr+0x711>
  402b39:	0f b6 43 03          	movzbl 0x3(%rbx),%eax
  402b3d:	f7 d8                	neg    %eax
  402b3f:	eb 02                	jmp    402b43 <submitr+0x711>
  402b41:	89 d0                	mov    %edx,%eax
  402b43:	85 c0                	test   %eax,%eax
  402b45:	74 40                	je     402b87 <submitr+0x755>
  402b47:	bf c0 37 40 00       	mov    $0x4037c0,%edi
  402b4c:	b9 05 00 00 00       	mov    $0x5,%ecx
  402b51:	48 89 de             	mov    %rbx,%rsi
  402b54:	f3 a6                	repz cmpsb %es:(%rdi),%ds:(%rsi)
  402b56:	0f 97 c0             	seta   %al
  402b59:	0f 92 c1             	setb   %cl
  402b5c:	29 c8                	sub    %ecx,%eax
  402b5e:	0f be c0             	movsbl %al,%eax
  402b61:	85 c0                	test   %eax,%eax
  402b63:	74 2e                	je     402b93 <submitr+0x761>
  402b65:	85 d2                	test   %edx,%edx
  402b67:	75 13                	jne    402b7c <submitr+0x74a>
  402b69:	0f b6 43 01          	movzbl 0x1(%rbx),%eax
  402b6d:	ba 4b 00 00 00       	mov    $0x4b,%edx
  402b72:	29 c2                	sub    %eax,%edx
  402b74:	75 06                	jne    402b7c <submitr+0x74a>
  402b76:	0f b6 53 02          	movzbl 0x2(%rbx),%edx
  402b7a:	f7 da                	neg    %edx
  402b7c:	85 d2                	test   %edx,%edx
  402b7e:	75 0e                	jne    402b8e <submitr+0x75c>
  402b80:	b8 00 00 00 00       	mov    $0x0,%eax
  402b85:	eb 0c                	jmp    402b93 <submitr+0x761>
  402b87:	b8 00 00 00 00       	mov    $0x0,%eax
  402b8c:	eb 05                	jmp    402b93 <submitr+0x761>
  402b8e:	b8 ff ff ff ff       	mov    $0xffffffff,%eax
  402b93:	48 8b 9c 24 48 a0 00 	mov    0xa048(%rsp),%rbx
  402b9a:	00 
  402b9b:	64 48 33 1c 25 28 00 	xor    %fs:0x28,%rbx
  402ba2:	00 00 
  402ba4:	74 05                	je     402bab <submitr+0x779>
  402ba6:	e8 65 e1 ff ff       	callq  400d10 <__stack_chk_fail@plt>
  402bab:	48 81 c4 58 a0 00 00 	add    $0xa058,%rsp
  402bb2:	5b                   	pop    %rbx
  402bb3:	5d                   	pop    %rbp
  402bb4:	41 5c                	pop    %r12
  402bb6:	41 5d                	pop    %r13
  402bb8:	41 5e                	pop    %r14
  402bba:	41 5f                	pop    %r15
  402bbc:	c3                   	retq   

0000000000402bbd <init_timeout>:
  402bbd:	85 ff                	test   %edi,%edi
  402bbf:	74 23                	je     402be4 <init_timeout+0x27>
  402bc1:	53                   	push   %rbx
  402bc2:	89 fb                	mov    %edi,%ebx
  402bc4:	85 ff                	test   %edi,%edi
  402bc6:	79 05                	jns    402bcd <init_timeout+0x10>
  402bc8:	bb 00 00 00 00       	mov    $0x0,%ebx
  402bcd:	be 66 21 40 00       	mov    $0x402166,%esi
  402bd2:	bf 0e 00 00 00       	mov    $0xe,%edi
  402bd7:	e8 a4 e1 ff ff       	callq  400d80 <signal@plt>
  402bdc:	89 df                	mov    %ebx,%edi
  402bde:	e8 5d e1 ff ff       	callq  400d40 <alarm@plt>
  402be3:	5b                   	pop    %rbx
  402be4:	f3 c3                	repz retq 

0000000000402be6 <init_driver>:
  402be6:	55                   	push   %rbp
  402be7:	53                   	push   %rbx
  402be8:	48 83 ec 28          	sub    $0x28,%rsp
  402bec:	48 89 fd             	mov    %rdi,%rbp
  402bef:	64 48 8b 04 25 28 00 	mov    %fs:0x28,%rax
  402bf6:	00 00 
  402bf8:	48 89 44 24 18       	mov    %rax,0x18(%rsp)
  402bfd:	31 c0                	xor    %eax,%eax
  402bff:	be 01 00 00 00       	mov    $0x1,%esi
  402c04:	bf 0d 00 00 00       	mov    $0xd,%edi
  402c09:	e8 72 e1 ff ff       	callq  400d80 <signal@plt>
  402c0e:	be 01 00 00 00       	mov    $0x1,%esi
  402c13:	bf 1d 00 00 00       	mov    $0x1d,%edi
  402c18:	e8 63 e1 ff ff       	callq  400d80 <signal@plt>
  402c1d:	be 01 00 00 00       	mov    $0x1,%esi
  402c22:	bf 1d 00 00 00       	mov    $0x1d,%edi
  402c27:	e8 54 e1 ff ff       	callq  400d80 <signal@plt>
  402c2c:	ba 00 00 00 00       	mov    $0x0,%edx
  402c31:	be 01 00 00 00       	mov    $0x1,%esi
  402c36:	bf 02 00 00 00       	mov    $0x2,%edi
  402c3b:	e8 70 e2 ff ff       	callq  400eb0 <socket@plt>
  402c40:	85 c0                	test   %eax,%eax
  402c42:	79 4f                	jns    402c93 <init_driver+0xad>
  402c44:	48 b8 45 72 72 6f 72 	movabs $0x43203a726f727245,%rax
  402c4b:	3a 20 43 
  402c4e:	48 89 45 00          	mov    %rax,0x0(%rbp)
  402c52:	48 b8 6c 69 65 6e 74 	movabs $0x6e7520746e65696c,%rax
  402c59:	20 75 6e 
  402c5c:	48 89 45 08          	mov    %rax,0x8(%rbp)
  402c60:	48 b8 61 62 6c 65 20 	movabs $0x206f7420656c6261,%rax
  402c67:	74 6f 20 
  402c6a:	48 89 45 10          	mov    %rax,0x10(%rbp)
  402c6e:	48 b8 63 72 65 61 74 	movabs $0x7320657461657263,%rax
  402c75:	65 20 73 
  402c78:	48 89 45 18          	mov    %rax,0x18(%rbp)
  402c7c:	c7 45 20 6f 63 6b 65 	movl   $0x656b636f,0x20(%rbp)
  402c83:	66 c7 45 24 74 00    	movw   $0x74,0x24(%rbp)
  402c89:	b8 ff ff ff ff       	mov    $0xffffffff,%eax
  402c8e:	e9 2a 01 00 00       	jmpq   402dbd <init_driver+0x1d7>
  402c93:	89 c3                	mov    %eax,%ebx
  402c95:	bf e5 32 40 00       	mov    $0x4032e5,%edi
  402c9a:	e8 f1 e0 ff ff       	callq  400d90 <gethostbyname@plt>
  402c9f:	48 85 c0             	test   %rax,%rax
  402ca2:	75 68                	jne    402d0c <init_driver+0x126>
  402ca4:	48 b8 45 72 72 6f 72 	movabs $0x44203a726f727245,%rax
  402cab:	3a 20 44 
  402cae:	48 89 45 00          	mov    %rax,0x0(%rbp)
  402cb2:	48 b8 4e 53 20 69 73 	movabs $0x6e7520736920534e,%rax
  402cb9:	20 75 6e 
  402cbc:	48 89 45 08          	mov    %rax,0x8(%rbp)
  402cc0:	48 b8 61 62 6c 65 20 	movabs $0x206f7420656c6261,%rax
  402cc7:	74 6f 20 
  402cca:	48 89 45 10          	mov    %rax,0x10(%rbp)
  402cce:	48 b8 72 65 73 6f 6c 	movabs $0x2065766c6f736572,%rax
  402cd5:	76 65 20 
  402cd8:	48 89 45 18          	mov    %rax,0x18(%rbp)
  402cdc:	48 b8 73 65 72 76 65 	movabs $0x6120726576726573,%rax
  402ce3:	72 20 61 
  402ce6:	48 89 45 20          	mov    %rax,0x20(%rbp)
  402cea:	c7 45 28 64 64 72 65 	movl   $0x65726464,0x28(%rbp)
  402cf1:	66 c7 45 2c 73 73    	movw   $0x7373,0x2c(%rbp)
  402cf7:	c6 45 2e 00          	movb   $0x0,0x2e(%rbp)
  402cfb:	89 df                	mov    %ebx,%edi
  402cfd:	e8 4e e0 ff ff       	callq  400d50 <close@plt>
  402d02:	b8 ff ff ff ff       	mov    $0xffffffff,%eax
  402d07:	e9 b1 00 00 00       	jmpq   402dbd <init_driver+0x1d7>
  402d0c:	48 c7 04 24 00 00 00 	movq   $0x0,(%rsp)
  402d13:	00 
  402d14:	48 c7 44 24 08 00 00 	movq   $0x0,0x8(%rsp)
  402d1b:	00 00 
  402d1d:	66 c7 04 24 02 00    	movw   $0x2,(%rsp)
  402d23:	48 63 50 14          	movslq 0x14(%rax),%rdx
  402d27:	48 8b 40 18          	mov    0x18(%rax),%rax
  402d2b:	48 8b 30             	mov    (%rax),%rsi
  402d2e:	48 8d 7c 24 04       	lea    0x4(%rsp),%rdi
  402d33:	b9 0c 00 00 00       	mov    $0xc,%ecx
  402d38:	e8 63 e0 ff ff       	callq  400da0 <__memmove_chk@plt>
  402d3d:	66 c7 44 24 02 00 50 	movw   $0x5000,0x2(%rsp)
  402d44:	ba 10 00 00 00       	mov    $0x10,%edx
  402d49:	48 89 e6             	mov    %rsp,%rsi
  402d4c:	89 df                	mov    %ebx,%edi
  402d4e:	e8 2d e1 ff ff       	callq  400e80 <connect@plt>
  402d53:	85 c0                	test   %eax,%eax
  402d55:	79 50                	jns    402da7 <init_driver+0x1c1>
  402d57:	48 b8 45 72 72 6f 72 	movabs $0x55203a726f727245,%rax
  402d5e:	3a 20 55 
  402d61:	48 89 45 00          	mov    %rax,0x0(%rbp)
  402d65:	48 b8 6e 61 62 6c 65 	movabs $0x6f7420656c62616e,%rax
  402d6c:	20 74 6f 
  402d6f:	48 89 45 08          	mov    %rax,0x8(%rbp)
  402d73:	48 b8 20 63 6f 6e 6e 	movabs $0x7463656e6e6f6320,%rax
  402d7a:	65 63 74 
  402d7d:	48 89 45 10          	mov    %rax,0x10(%rbp)
  402d81:	48 b8 20 74 6f 20 73 	movabs $0x76726573206f7420,%rax
  402d88:	65 72 76 
  402d8b:	48 89 45 18          	mov    %rax,0x18(%rbp)
  402d8f:	66 c7 45 20 65 72    	movw   $0x7265,0x20(%rbp)
  402d95:	c6 45 22 00          	movb   $0x0,0x22(%rbp)
  402d99:	89 df                	mov    %ebx,%edi
  402d9b:	e8 b0 df ff ff       	callq  400d50 <close@plt>
  402da0:	b8 ff ff ff ff       	mov    $0xffffffff,%eax
  402da5:	eb 16                	jmp    402dbd <init_driver+0x1d7>
  402da7:	89 df                	mov    %ebx,%edi
  402da9:	e8 a2 df ff ff       	callq  400d50 <close@plt>
  402dae:	66 c7 45 00 4f 4b    	movw   $0x4b4f,0x0(%rbp)
  402db4:	c6 45 02 00          	movb   $0x0,0x2(%rbp)
  402db8:	b8 00 00 00 00       	mov    $0x0,%eax
  402dbd:	48 8b 4c 24 18       	mov    0x18(%rsp),%rcx
  402dc2:	64 48 33 0c 25 28 00 	xor    %fs:0x28,%rcx
  402dc9:	00 00 
  402dcb:	74 05                	je     402dd2 <init_driver+0x1ec>
  402dcd:	e8 3e df ff ff       	callq  400d10 <__stack_chk_fail@plt>
  402dd2:	48 83 c4 28          	add    $0x28,%rsp
  402dd6:	5b                   	pop    %rbx
  402dd7:	5d                   	pop    %rbp
  402dd8:	c3                   	retq   

0000000000402dd9 <driver_post>:
  402dd9:	53                   	push   %rbx
  402dda:	4c 89 cb             	mov    %r9,%rbx
  402ddd:	45 85 c0             	test   %r8d,%r8d
  402de0:	74 27                	je     402e09 <driver_post+0x30>
  402de2:	48 89 ca             	mov    %rcx,%rdx
  402de5:	be c5 37 40 00       	mov    $0x4037c5,%esi
  402dea:	bf 01 00 00 00       	mov    $0x1,%edi
  402def:	b8 00 00 00 00       	mov    $0x0,%eax
  402df4:	e8 27 e0 ff ff       	callq  400e20 <__printf_chk@plt>
  402df9:	66 c7 03 4f 4b       	movw   $0x4b4f,(%rbx)
  402dfe:	c6 43 02 00          	movb   $0x0,0x2(%rbx)
  402e02:	b8 00 00 00 00       	mov    $0x0,%eax
  402e07:	eb 3f                	jmp    402e48 <driver_post+0x6f>
  402e09:	48 85 ff             	test   %rdi,%rdi
  402e0c:	74 2c                	je     402e3a <driver_post+0x61>
  402e0e:	80 3f 00             	cmpb   $0x0,(%rdi)
  402e11:	74 27                	je     402e3a <driver_post+0x61>
  402e13:	48 83 ec 08          	sub    $0x8,%rsp
  402e17:	41 51                	push   %r9
  402e19:	49 89 c9             	mov    %rcx,%r9
  402e1c:	49 89 d0             	mov    %rdx,%r8
  402e1f:	48 89 f9             	mov    %rdi,%rcx
  402e22:	48 89 f2             	mov    %rsi,%rdx
  402e25:	be 50 00 00 00       	mov    $0x50,%esi
  402e2a:	bf e5 32 40 00       	mov    $0x4032e5,%edi
  402e2f:	e8 fe f5 ff ff       	callq  402432 <submitr>
  402e34:	48 83 c4 10          	add    $0x10,%rsp
  402e38:	eb 0e                	jmp    402e48 <driver_post+0x6f>
  402e3a:	66 c7 03 4f 4b       	movw   $0x4b4f,(%rbx)
  402e3f:	c6 43 02 00          	movb   $0x0,0x2(%rbx)
  402e43:	b8 00 00 00 00       	mov    $0x0,%eax
  402e48:	5b                   	pop    %rbx
  402e49:	c3                   	retq   

0000000000402e4a <check>:
  402e4a:	89 f8                	mov    %edi,%eax
  402e4c:	c1 e8 1c             	shr    $0x1c,%eax
  402e4f:	85 c0                	test   %eax,%eax
  402e51:	74 1d                	je     402e70 <check+0x26>
  402e53:	b9 00 00 00 00       	mov    $0x0,%ecx
  402e58:	eb 0b                	jmp    402e65 <check+0x1b>
  402e5a:	89 f8                	mov    %edi,%eax
  402e5c:	d3 e8                	shr    %cl,%eax
  402e5e:	3c 0a                	cmp    $0xa,%al
  402e60:	74 14                	je     402e76 <check+0x2c>
  402e62:	83 c1 08             	add    $0x8,%ecx
  402e65:	83 f9 1f             	cmp    $0x1f,%ecx
  402e68:	7e f0                	jle    402e5a <check+0x10>
  402e6a:	b8 01 00 00 00       	mov    $0x1,%eax
  402e6f:	c3                   	retq   
  402e70:	b8 00 00 00 00       	mov    $0x0,%eax
  402e75:	c3                   	retq   
  402e76:	b8 00 00 00 00       	mov    $0x0,%eax
  402e7b:	c3                   	retq   

0000000000402e7c <gencookie>:
  402e7c:	53                   	push   %rbx
  402e7d:	83 c7 01             	add    $0x1,%edi
  402e80:	e8 3b de ff ff       	callq  400cc0 <srandom@plt>
  402e85:	e8 56 df ff ff       	callq  400de0 <random@plt>
  402e8a:	89 c3                	mov    %eax,%ebx
  402e8c:	89 c7                	mov    %eax,%edi
  402e8e:	e8 b7 ff ff ff       	callq  402e4a <check>
  402e93:	85 c0                	test   %eax,%eax
  402e95:	74 ee                	je     402e85 <gencookie+0x9>
  402e97:	89 d8                	mov    %ebx,%eax
  402e99:	5b                   	pop    %rbx
  402e9a:	c3                   	retq   
  402e9b:	0f 1f 44 00 00       	nopl   0x0(%rax,%rax,1)

0000000000402ea0 <__libc_csu_init>:
  402ea0:	41 57                	push   %r15
  402ea2:	41 56                	push   %r14
  402ea4:	41 89 ff             	mov    %edi,%r15d
  402ea7:	41 55                	push   %r13
  402ea9:	41 54                	push   %r12
  402eab:	4c 8d 25 4e 1f 20 00 	lea    0x201f4e(%rip),%r12        # 604e00 <__frame_dummy_init_array_entry>
  402eb2:	55                   	push   %rbp
  402eb3:	48 8d 2d 4e 1f 20 00 	lea    0x201f4e(%rip),%rbp        # 604e08 <__init_array_end>
  402eba:	53                   	push   %rbx
  402ebb:	49 89 f6             	mov    %rsi,%r14
  402ebe:	49 89 d5             	mov    %rdx,%r13
  402ec1:	4c 29 e5             	sub    %r12,%rbp
  402ec4:	48 83 ec 08          	sub    $0x8,%rsp
  402ec8:	48 c1 fd 03          	sar    $0x3,%rbp
  402ecc:	e8 97 dd ff ff       	callq  400c68 <_init>
  402ed1:	48 85 ed             	test   %rbp,%rbp
  402ed4:	74 20                	je     402ef6 <__libc_csu_init+0x56>
  402ed6:	31 db                	xor    %ebx,%ebx
  402ed8:	0f 1f 84 00 00 00 00 	nopl   0x0(%rax,%rax,1)
  402edf:	00 
  402ee0:	4c 89 ea             	mov    %r13,%rdx
  402ee3:	4c 89 f6             	mov    %r14,%rsi
  402ee6:	44 89 ff             	mov    %r15d,%edi
  402ee9:	41 ff 14 dc          	callq  *(%r12,%rbx,8)
  402eed:	48 83 c3 01          	add    $0x1,%rbx
  402ef1:	48 39 eb             	cmp    %rbp,%rbx
  402ef4:	75 ea                	jne    402ee0 <__libc_csu_init+0x40>
  402ef6:	48 83 c4 08          	add    $0x8,%rsp
  402efa:	5b                   	pop    %rbx
  402efb:	5d                   	pop    %rbp
  402efc:	41 5c                	pop    %r12
  402efe:	41 5d                	pop    %r13
  402f00:	41 5e                	pop    %r14
  402f02:	41 5f                	pop    %r15
  402f04:	c3                   	retq   
  402f05:	90                   	nop
  402f06:	66 2e 0f 1f 84 00 00 	nopw   %cs:0x0(%rax,%rax,1)
  402f0d:	00 00 00 

0000000000402f10 <__libc_csu_fini>:
  402f10:	f3 c3                	repz retq 

Disassembly of section .fini:

0000000000402f14 <_fini>:
  402f14:	48 83 ec 08          	sub    $0x8,%rsp
  402f18:	48 83 c4 08          	add    $0x8,%rsp
  402f1c:	c3                   	retq   
