
rtarget：     文件格式 elf64-x86-64


Disassembly of section .init:

0000000000400c68 <_init>:
  400c68:	48 83 ec 08          	sub    $0x8,%rsp
  400c6c:	48 8b 05 85 43 20 00 	mov    0x204385(%rip),%rax        # 604ff8 <_DYNAMIC+0x1e0>
  400c73:	48 85 c0             	test   %rax,%rax
  400c76:	74 05                	je     400c7d <_init+0x15>
  400c78:	e8 43 02 00 00       	callq  400ec0 <socket@plt+0x10>
  400c7d:	48 83 c4 08          	add    $0x8,%rsp
  400c81:	c3                   	retq   

Disassembly of section .plt:

0000000000400c90 <strcasecmp@plt-0x10>:
  400c90:	ff 35 72 43 20 00    	pushq  0x204372(%rip)        # 605008 <_GLOBAL_OFFSET_TABLE_+0x8>
  400c96:	ff 25 74 43 20 00    	jmpq   *0x204374(%rip)        # 605010 <_GLOBAL_OFFSET_TABLE_+0x10>
  400c9c:	0f 1f 40 00          	nopl   0x0(%rax)

0000000000400ca0 <strcasecmp@plt>:
  400ca0:	ff 25 72 43 20 00    	jmpq   *0x204372(%rip)        # 605018 <_GLOBAL_OFFSET_TABLE_+0x18>
  400ca6:	68 00 00 00 00       	pushq  $0x0
  400cab:	e9 e0 ff ff ff       	jmpq   400c90 <_init+0x28>

0000000000400cb0 <__errno_location@plt>:
  400cb0:	ff 25 6a 43 20 00    	jmpq   *0x20436a(%rip)        # 605020 <_GLOBAL_OFFSET_TABLE_+0x20>
  400cb6:	68 01 00 00 00       	pushq  $0x1
  400cbb:	e9 d0 ff ff ff       	jmpq   400c90 <_init+0x28>

0000000000400cc0 <srandom@plt>:
  400cc0:	ff 25 62 43 20 00    	jmpq   *0x204362(%rip)        # 605028 <_GLOBAL_OFFSET_TABLE_+0x28>
  400cc6:	68 02 00 00 00       	pushq  $0x2
  400ccb:	e9 c0 ff ff ff       	jmpq   400c90 <_init+0x28>

0000000000400cd0 <strncmp@plt>:
  400cd0:	ff 25 5a 43 20 00    	jmpq   *0x20435a(%rip)        # 605030 <_GLOBAL_OFFSET_TABLE_+0x30>
  400cd6:	68 03 00 00 00       	pushq  $0x3
  400cdb:	e9 b0 ff ff ff       	jmpq   400c90 <_init+0x28>

0000000000400ce0 <strcpy@plt>:
  400ce0:	ff 25 52 43 20 00    	jmpq   *0x204352(%rip)        # 605038 <_GLOBAL_OFFSET_TABLE_+0x38>
  400ce6:	68 04 00 00 00       	pushq  $0x4
  400ceb:	e9 a0 ff ff ff       	jmpq   400c90 <_init+0x28>

0000000000400cf0 <puts@plt>:
  400cf0:	ff 25 4a 43 20 00    	jmpq   *0x20434a(%rip)        # 605040 <_GLOBAL_OFFSET_TABLE_+0x40>
  400cf6:	68 05 00 00 00       	pushq  $0x5
  400cfb:	e9 90 ff ff ff       	jmpq   400c90 <_init+0x28>

0000000000400d00 <write@plt>:
  400d00:	ff 25 42 43 20 00    	jmpq   *0x204342(%rip)        # 605048 <_GLOBAL_OFFSET_TABLE_+0x48>
  400d06:	68 06 00 00 00       	pushq  $0x6
  400d0b:	e9 80 ff ff ff       	jmpq   400c90 <_init+0x28>

0000000000400d10 <__stack_chk_fail@plt>:
  400d10:	ff 25 3a 43 20 00    	jmpq   *0x20433a(%rip)        # 605050 <_GLOBAL_OFFSET_TABLE_+0x50>
  400d16:	68 07 00 00 00       	pushq  $0x7
  400d1b:	e9 70 ff ff ff       	jmpq   400c90 <_init+0x28>

0000000000400d20 <mmap@plt>:
  400d20:	ff 25 32 43 20 00    	jmpq   *0x204332(%rip)        # 605058 <_GLOBAL_OFFSET_TABLE_+0x58>
  400d26:	68 08 00 00 00       	pushq  $0x8
  400d2b:	e9 60 ff ff ff       	jmpq   400c90 <_init+0x28>

0000000000400d30 <memset@plt>:
  400d30:	ff 25 2a 43 20 00    	jmpq   *0x20432a(%rip)        # 605060 <_GLOBAL_OFFSET_TABLE_+0x60>
  400d36:	68 09 00 00 00       	pushq  $0x9
  400d3b:	e9 50 ff ff ff       	jmpq   400c90 <_init+0x28>

0000000000400d40 <alarm@plt>:
  400d40:	ff 25 22 43 20 00    	jmpq   *0x204322(%rip)        # 605068 <_GLOBAL_OFFSET_TABLE_+0x68>
  400d46:	68 0a 00 00 00       	pushq  $0xa
  400d4b:	e9 40 ff ff ff       	jmpq   400c90 <_init+0x28>

0000000000400d50 <close@plt>:
  400d50:	ff 25 1a 43 20 00    	jmpq   *0x20431a(%rip)        # 605070 <_GLOBAL_OFFSET_TABLE_+0x70>
  400d56:	68 0b 00 00 00       	pushq  $0xb
  400d5b:	e9 30 ff ff ff       	jmpq   400c90 <_init+0x28>

0000000000400d60 <read@plt>:
  400d60:	ff 25 12 43 20 00    	jmpq   *0x204312(%rip)        # 605078 <_GLOBAL_OFFSET_TABLE_+0x78>
  400d66:	68 0c 00 00 00       	pushq  $0xc
  400d6b:	e9 20 ff ff ff       	jmpq   400c90 <_init+0x28>

0000000000400d70 <__libc_start_main@plt>:
  400d70:	ff 25 0a 43 20 00    	jmpq   *0x20430a(%rip)        # 605080 <_GLOBAL_OFFSET_TABLE_+0x80>
  400d76:	68 0d 00 00 00       	pushq  $0xd
  400d7b:	e9 10 ff ff ff       	jmpq   400c90 <_init+0x28>

0000000000400d80 <signal@plt>:
  400d80:	ff 25 02 43 20 00    	jmpq   *0x204302(%rip)        # 605088 <_GLOBAL_OFFSET_TABLE_+0x88>
  400d86:	68 0e 00 00 00       	pushq  $0xe
  400d8b:	e9 00 ff ff ff       	jmpq   400c90 <_init+0x28>

0000000000400d90 <gethostbyname@plt>:
  400d90:	ff 25 fa 42 20 00    	jmpq   *0x2042fa(%rip)        # 605090 <_GLOBAL_OFFSET_TABLE_+0x90>
  400d96:	68 0f 00 00 00       	pushq  $0xf
  400d9b:	e9 f0 fe ff ff       	jmpq   400c90 <_init+0x28>

0000000000400da0 <__memmove_chk@plt>:
  400da0:	ff 25 f2 42 20 00    	jmpq   *0x2042f2(%rip)        # 605098 <_GLOBAL_OFFSET_TABLE_+0x98>
  400da6:	68 10 00 00 00       	pushq  $0x10
  400dab:	e9 e0 fe ff ff       	jmpq   400c90 <_init+0x28>

0000000000400db0 <strtol@plt>:
  400db0:	ff 25 ea 42 20 00    	jmpq   *0x2042ea(%rip)        # 6050a0 <_GLOBAL_OFFSET_TABLE_+0xa0>
  400db6:	68 11 00 00 00       	pushq  $0x11
  400dbb:	e9 d0 fe ff ff       	jmpq   400c90 <_init+0x28>

0000000000400dc0 <memcpy@plt>:
  400dc0:	ff 25 e2 42 20 00    	jmpq   *0x2042e2(%rip)        # 6050a8 <_GLOBAL_OFFSET_TABLE_+0xa8>
  400dc6:	68 12 00 00 00       	pushq  $0x12
  400dcb:	e9 c0 fe ff ff       	jmpq   400c90 <_init+0x28>

0000000000400dd0 <time@plt>:
  400dd0:	ff 25 da 42 20 00    	jmpq   *0x2042da(%rip)        # 6050b0 <_GLOBAL_OFFSET_TABLE_+0xb0>
  400dd6:	68 13 00 00 00       	pushq  $0x13
  400ddb:	e9 b0 fe ff ff       	jmpq   400c90 <_init+0x28>

0000000000400de0 <random@plt>:
  400de0:	ff 25 d2 42 20 00    	jmpq   *0x2042d2(%rip)        # 6050b8 <_GLOBAL_OFFSET_TABLE_+0xb8>
  400de6:	68 14 00 00 00       	pushq  $0x14
  400deb:	e9 a0 fe ff ff       	jmpq   400c90 <_init+0x28>

0000000000400df0 <_IO_getc@plt>:
  400df0:	ff 25 ca 42 20 00    	jmpq   *0x2042ca(%rip)        # 6050c0 <_GLOBAL_OFFSET_TABLE_+0xc0>
  400df6:	68 15 00 00 00       	pushq  $0x15
  400dfb:	e9 90 fe ff ff       	jmpq   400c90 <_init+0x28>

0000000000400e00 <__isoc99_sscanf@plt>:
  400e00:	ff 25 c2 42 20 00    	jmpq   *0x2042c2(%rip)        # 6050c8 <_GLOBAL_OFFSET_TABLE_+0xc8>
  400e06:	68 16 00 00 00       	pushq  $0x16
  400e0b:	e9 80 fe ff ff       	jmpq   400c90 <_init+0x28>

0000000000400e10 <munmap@plt>:
  400e10:	ff 25 ba 42 20 00    	jmpq   *0x2042ba(%rip)        # 6050d0 <_GLOBAL_OFFSET_TABLE_+0xd0>
  400e16:	68 17 00 00 00       	pushq  $0x17
  400e1b:	e9 70 fe ff ff       	jmpq   400c90 <_init+0x28>

0000000000400e20 <__printf_chk@plt>:
  400e20:	ff 25 b2 42 20 00    	jmpq   *0x2042b2(%rip)        # 6050d8 <_GLOBAL_OFFSET_TABLE_+0xd8>
  400e26:	68 18 00 00 00       	pushq  $0x18
  400e2b:	e9 60 fe ff ff       	jmpq   400c90 <_init+0x28>

0000000000400e30 <fopen@plt>:
  400e30:	ff 25 aa 42 20 00    	jmpq   *0x2042aa(%rip)        # 6050e0 <_GLOBAL_OFFSET_TABLE_+0xe0>
  400e36:	68 19 00 00 00       	pushq  $0x19
  400e3b:	e9 50 fe ff ff       	jmpq   400c90 <_init+0x28>

0000000000400e40 <getopt@plt>:
  400e40:	ff 25 a2 42 20 00    	jmpq   *0x2042a2(%rip)        # 6050e8 <_GLOBAL_OFFSET_TABLE_+0xe8>
  400e46:	68 1a 00 00 00       	pushq  $0x1a
  400e4b:	e9 40 fe ff ff       	jmpq   400c90 <_init+0x28>

0000000000400e50 <strtoul@plt>:
  400e50:	ff 25 9a 42 20 00    	jmpq   *0x20429a(%rip)        # 6050f0 <_GLOBAL_OFFSET_TABLE_+0xf0>
  400e56:	68 1b 00 00 00       	pushq  $0x1b
  400e5b:	e9 30 fe ff ff       	jmpq   400c90 <_init+0x28>

0000000000400e60 <gethostname@plt>:
  400e60:	ff 25 92 42 20 00    	jmpq   *0x204292(%rip)        # 6050f8 <_GLOBAL_OFFSET_TABLE_+0xf8>
  400e66:	68 1c 00 00 00       	pushq  $0x1c
  400e6b:	e9 20 fe ff ff       	jmpq   400c90 <_init+0x28>

0000000000400e70 <exit@plt>:
  400e70:	ff 25 8a 42 20 00    	jmpq   *0x20428a(%rip)        # 605100 <_GLOBAL_OFFSET_TABLE_+0x100>
  400e76:	68 1d 00 00 00       	pushq  $0x1d
  400e7b:	e9 10 fe ff ff       	jmpq   400c90 <_init+0x28>

0000000000400e80 <connect@plt>:
  400e80:	ff 25 82 42 20 00    	jmpq   *0x204282(%rip)        # 605108 <_GLOBAL_OFFSET_TABLE_+0x108>
  400e86:	68 1e 00 00 00       	pushq  $0x1e
  400e8b:	e9 00 fe ff ff       	jmpq   400c90 <_init+0x28>

0000000000400e90 <__fprintf_chk@plt>:
  400e90:	ff 25 7a 42 20 00    	jmpq   *0x20427a(%rip)        # 605110 <_GLOBAL_OFFSET_TABLE_+0x110>
  400e96:	68 1f 00 00 00       	pushq  $0x1f
  400e9b:	e9 f0 fd ff ff       	jmpq   400c90 <_init+0x28>

0000000000400ea0 <__sprintf_chk@plt>:
  400ea0:	ff 25 72 42 20 00    	jmpq   *0x204272(%rip)        # 605118 <_GLOBAL_OFFSET_TABLE_+0x118>
  400ea6:	68 20 00 00 00       	pushq  $0x20
  400eab:	e9 e0 fd ff ff       	jmpq   400c90 <_init+0x28>

0000000000400eb0 <socket@plt>:
  400eb0:	ff 25 6a 42 20 00    	jmpq   *0x20426a(%rip)        # 605120 <_GLOBAL_OFFSET_TABLE_+0x120>
  400eb6:	68 21 00 00 00       	pushq  $0x21
  400ebb:	e9 d0 fd ff ff       	jmpq   400c90 <_init+0x28>

Disassembly of section .plt.got:

0000000000400ec0 <.plt.got>:
  400ec0:	ff 25 32 41 20 00    	jmpq   *0x204132(%rip)        # 604ff8 <_DYNAMIC+0x1e0>
  400ec6:	66 90                	xchg   %ax,%ax

Disassembly of section .text:

0000000000400ed0 <_start>:
  400ed0:	31 ed                	xor    %ebp,%ebp
  400ed2:	49 89 d1             	mov    %rdx,%r9
  400ed5:	5e                   	pop    %rsi
  400ed6:	48 89 e2             	mov    %rsp,%rdx
  400ed9:	48 83 e4 f0          	and    $0xfffffffffffffff0,%rsp
  400edd:	50                   	push   %rax
  400ede:	54                   	push   %rsp
  400edf:	49 c7 c0 30 30 40 00 	mov    $0x403030,%r8
  400ee6:	48 c7 c1 c0 2f 40 00 	mov    $0x402fc0,%rcx
  400eed:	48 c7 c7 d5 11 40 00 	mov    $0x4011d5,%rdi
  400ef4:	e8 77 fe ff ff       	callq  400d70 <__libc_start_main@plt>
  400ef9:	f4                   	hlt    
  400efa:	66 0f 1f 44 00 00    	nopw   0x0(%rax,%rax,1)

0000000000400f00 <deregister_tm_clones>:
  400f00:	b8 b7 54 60 00       	mov    $0x6054b7,%eax
  400f05:	55                   	push   %rbp
  400f06:	48 2d b0 54 60 00    	sub    $0x6054b0,%rax
  400f0c:	48 83 f8 0e          	cmp    $0xe,%rax
  400f10:	48 89 e5             	mov    %rsp,%rbp
  400f13:	76 1b                	jbe    400f30 <deregister_tm_clones+0x30>
  400f15:	b8 00 00 00 00       	mov    $0x0,%eax
  400f1a:	48 85 c0             	test   %rax,%rax
  400f1d:	74 11                	je     400f30 <deregister_tm_clones+0x30>
  400f1f:	5d                   	pop    %rbp
  400f20:	bf b0 54 60 00       	mov    $0x6054b0,%edi
  400f25:	ff e0                	jmpq   *%rax
  400f27:	66 0f 1f 84 00 00 00 	nopw   0x0(%rax,%rax,1)
  400f2e:	00 00 
  400f30:	5d                   	pop    %rbp
  400f31:	c3                   	retq   
  400f32:	0f 1f 40 00          	nopl   0x0(%rax)
  400f36:	66 2e 0f 1f 84 00 00 	nopw   %cs:0x0(%rax,%rax,1)
  400f3d:	00 00 00 

0000000000400f40 <register_tm_clones>:
  400f40:	be b0 54 60 00       	mov    $0x6054b0,%esi
  400f45:	55                   	push   %rbp
  400f46:	48 81 ee b0 54 60 00 	sub    $0x6054b0,%rsi
  400f4d:	48 c1 fe 03          	sar    $0x3,%rsi
  400f51:	48 89 e5             	mov    %rsp,%rbp
  400f54:	48 89 f0             	mov    %rsi,%rax
  400f57:	48 c1 e8 3f          	shr    $0x3f,%rax
  400f5b:	48 01 c6             	add    %rax,%rsi
  400f5e:	48 d1 fe             	sar    %rsi
  400f61:	74 15                	je     400f78 <register_tm_clones+0x38>
  400f63:	b8 00 00 00 00       	mov    $0x0,%eax
  400f68:	48 85 c0             	test   %rax,%rax
  400f6b:	74 0b                	je     400f78 <register_tm_clones+0x38>
  400f6d:	5d                   	pop    %rbp
  400f6e:	bf b0 54 60 00       	mov    $0x6054b0,%edi
  400f73:	ff e0                	jmpq   *%rax
  400f75:	0f 1f 00             	nopl   (%rax)
  400f78:	5d                   	pop    %rbp
  400f79:	c3                   	retq   
  400f7a:	66 0f 1f 44 00 00    	nopw   0x0(%rax,%rax,1)

0000000000400f80 <__do_global_dtors_aux>:
  400f80:	80 3d 61 45 20 00 00 	cmpb   $0x0,0x204561(%rip)        # 6054e8 <completed.7585>
  400f87:	75 11                	jne    400f9a <__do_global_dtors_aux+0x1a>
  400f89:	55                   	push   %rbp
  400f8a:	48 89 e5             	mov    %rsp,%rbp
  400f8d:	e8 6e ff ff ff       	callq  400f00 <deregister_tm_clones>
  400f92:	5d                   	pop    %rbp
  400f93:	c6 05 4e 45 20 00 01 	movb   $0x1,0x20454e(%rip)        # 6054e8 <completed.7585>
  400f9a:	f3 c3                	repz retq 
  400f9c:	0f 1f 40 00          	nopl   0x0(%rax)

0000000000400fa0 <frame_dummy>:
  400fa0:	bf 10 4e 60 00       	mov    $0x604e10,%edi
  400fa5:	48 83 3f 00          	cmpq   $0x0,(%rdi)
  400fa9:	75 05                	jne    400fb0 <frame_dummy+0x10>
  400fab:	eb 93                	jmp    400f40 <register_tm_clones>
  400fad:	0f 1f 00             	nopl   (%rax)
  400fb0:	b8 00 00 00 00       	mov    $0x0,%eax
  400fb5:	48 85 c0             	test   %rax,%rax
  400fb8:	74 f1                	je     400fab <frame_dummy+0xb>
  400fba:	55                   	push   %rbp
  400fbb:	48 89 e5             	mov    %rsp,%rbp
  400fbe:	ff d0                	callq  *%rax
  400fc0:	5d                   	pop    %rbp
  400fc1:	e9 7a ff ff ff       	jmpq   400f40 <register_tm_clones>

0000000000400fc6 <usage>:
  400fc6:	48 83 ec 08          	sub    $0x8,%rsp
  400fca:	48 89 fa             	mov    %rdi,%rdx
  400fcd:	83 3d 54 45 20 00 00 	cmpl   $0x0,0x204554(%rip)        # 605528 <is_checker>
  400fd4:	74 3e                	je     401014 <usage+0x4e>
  400fd6:	be 48 30 40 00       	mov    $0x403048,%esi
  400fdb:	bf 01 00 00 00       	mov    $0x1,%edi
  400fe0:	b8 00 00 00 00       	mov    $0x0,%eax
  400fe5:	e8 36 fe ff ff       	callq  400e20 <__printf_chk@plt>
  400fea:	bf 80 30 40 00       	mov    $0x403080,%edi
  400fef:	e8 fc fc ff ff       	callq  400cf0 <puts@plt>
  400ff4:	bf f8 31 40 00       	mov    $0x4031f8,%edi
  400ff9:	e8 f2 fc ff ff       	callq  400cf0 <puts@plt>
  400ffe:	bf a8 30 40 00       	mov    $0x4030a8,%edi
  401003:	e8 e8 fc ff ff       	callq  400cf0 <puts@plt>
  401008:	bf 12 32 40 00       	mov    $0x403212,%edi
  40100d:	e8 de fc ff ff       	callq  400cf0 <puts@plt>
  401012:	eb 32                	jmp    401046 <usage+0x80>
  401014:	be 2e 32 40 00       	mov    $0x40322e,%esi
  401019:	bf 01 00 00 00       	mov    $0x1,%edi
  40101e:	b8 00 00 00 00       	mov    $0x0,%eax
  401023:	e8 f8 fd ff ff       	callq  400e20 <__printf_chk@plt>
  401028:	bf d0 30 40 00       	mov    $0x4030d0,%edi
  40102d:	e8 be fc ff ff       	callq  400cf0 <puts@plt>
  401032:	bf f8 30 40 00       	mov    $0x4030f8,%edi
  401037:	e8 b4 fc ff ff       	callq  400cf0 <puts@plt>
  40103c:	bf 4c 32 40 00       	mov    $0x40324c,%edi
  401041:	e8 aa fc ff ff       	callq  400cf0 <puts@plt>
  401046:	bf 00 00 00 00       	mov    $0x0,%edi
  40104b:	e8 20 fe ff ff       	callq  400e70 <exit@plt>

0000000000401050 <initialize_target>:
  401050:	55                   	push   %rbp
  401051:	53                   	push   %rbx
  401052:	48 81 ec 18 21 00 00 	sub    $0x2118,%rsp
  401059:	89 f5                	mov    %esi,%ebp
  40105b:	64 48 8b 04 25 28 00 	mov    %fs:0x28,%rax
  401062:	00 00 
  401064:	48 89 84 24 08 21 00 	mov    %rax,0x2108(%rsp)
  40106b:	00 
  40106c:	31 c0                	xor    %eax,%eax
  40106e:	89 3d a4 44 20 00    	mov    %edi,0x2044a4(%rip)        # 605518 <check_level>
  401074:	8b 3d ee 40 20 00    	mov    0x2040ee(%rip),%edi        # 605168 <target_id>
  40107a:	e8 1d 1f 00 00       	callq  402f9c <gencookie>
  40107f:	89 05 9f 44 20 00    	mov    %eax,0x20449f(%rip)        # 605524 <cookie>
  401085:	89 c7                	mov    %eax,%edi
  401087:	e8 10 1f 00 00       	callq  402f9c <gencookie>
  40108c:	89 05 8e 44 20 00    	mov    %eax,0x20448e(%rip)        # 605520 <authkey>
  401092:	8b 05 d0 40 20 00    	mov    0x2040d0(%rip),%eax        # 605168 <target_id>
  401098:	8d 78 01             	lea    0x1(%rax),%edi
  40109b:	e8 20 fc ff ff       	callq  400cc0 <srandom@plt>
  4010a0:	e8 3b fd ff ff       	callq  400de0 <random@plt>
  4010a5:	89 c7                	mov    %eax,%edi
  4010a7:	e8 03 03 00 00       	callq  4013af <scramble>
  4010ac:	89 c3                	mov    %eax,%ebx
  4010ae:	85 ed                	test   %ebp,%ebp
  4010b0:	74 18                	je     4010ca <initialize_target+0x7a>
  4010b2:	bf 00 00 00 00       	mov    $0x0,%edi
  4010b7:	e8 14 fd ff ff       	callq  400dd0 <time@plt>
  4010bc:	89 c7                	mov    %eax,%edi
  4010be:	e8 fd fb ff ff       	callq  400cc0 <srandom@plt>
  4010c3:	e8 18 fd ff ff       	callq  400de0 <random@plt>
  4010c8:	eb 05                	jmp    4010cf <initialize_target+0x7f>
  4010ca:	b8 00 00 00 00       	mov    $0x0,%eax
  4010cf:	01 c3                	add    %eax,%ebx
  4010d1:	0f b7 db             	movzwl %bx,%ebx
  4010d4:	8d 04 dd 00 01 00 00 	lea    0x100(,%rbx,8),%eax
  4010db:	89 c0                	mov    %eax,%eax
  4010dd:	48 89 05 bc 43 20 00 	mov    %rax,0x2043bc(%rip)        # 6054a0 <buf_offset>
  4010e4:	c6 05 5d 50 20 00 72 	movb   $0x72,0x20505d(%rip)        # 606148 <target_prefix>
  4010eb:	83 3d b6 43 20 00 00 	cmpl   $0x0,0x2043b6(%rip)        # 6054a8 <notify>
  4010f2:	0f 84 bb 00 00 00    	je     4011b3 <initialize_target+0x163>
  4010f8:	83 3d 29 44 20 00 00 	cmpl   $0x0,0x204429(%rip)        # 605528 <is_checker>
  4010ff:	0f 85 ae 00 00 00    	jne    4011b3 <initialize_target+0x163>
  401105:	be 00 01 00 00       	mov    $0x100,%esi
  40110a:	48 89 e7             	mov    %rsp,%rdi
  40110d:	e8 4e fd ff ff       	callq  400e60 <gethostname@plt>
  401112:	85 c0                	test   %eax,%eax
  401114:	74 25                	je     40113b <initialize_target+0xeb>
  401116:	bf 28 31 40 00       	mov    $0x403128,%edi
  40111b:	e8 d0 fb ff ff       	callq  400cf0 <puts@plt>
  401120:	bf 08 00 00 00       	mov    $0x8,%edi
  401125:	e8 46 fd ff ff       	callq  400e70 <exit@plt>
  40112a:	48 89 e6             	mov    %rsp,%rsi
  40112d:	e8 6e fb ff ff       	callq  400ca0 <strcasecmp@plt>
  401132:	85 c0                	test   %eax,%eax
  401134:	74 21                	je     401157 <initialize_target+0x107>
  401136:	83 c3 01             	add    $0x1,%ebx
  401139:	eb 05                	jmp    401140 <initialize_target+0xf0>
  40113b:	bb 00 00 00 00       	mov    $0x0,%ebx
  401140:	48 63 c3             	movslq %ebx,%rax
  401143:	48 8b 3c c5 80 51 60 	mov    0x605180(,%rax,8),%rdi
  40114a:	00 
  40114b:	48 85 ff             	test   %rdi,%rdi
  40114e:	75 da                	jne    40112a <initialize_target+0xda>
  401150:	b8 00 00 00 00       	mov    $0x0,%eax
  401155:	eb 05                	jmp    40115c <initialize_target+0x10c>
  401157:	b8 01 00 00 00       	mov    $0x1,%eax
  40115c:	85 c0                	test   %eax,%eax
  40115e:	75 1c                	jne    40117c <initialize_target+0x12c>
  401160:	48 89 e2             	mov    %rsp,%rdx
  401163:	be 60 31 40 00       	mov    $0x403160,%esi
  401168:	bf 01 00 00 00       	mov    $0x1,%edi
  40116d:	e8 ae fc ff ff       	callq  400e20 <__printf_chk@plt>
  401172:	bf 08 00 00 00       	mov    $0x8,%edi
  401177:	e8 f4 fc ff ff       	callq  400e70 <exit@plt>
  40117c:	48 8d bc 24 00 01 00 	lea    0x100(%rsp),%rdi
  401183:	00 
  401184:	e8 7d 1b 00 00       	callq  402d06 <init_driver>
  401189:	85 c0                	test   %eax,%eax
  40118b:	79 26                	jns    4011b3 <initialize_target+0x163>
  40118d:	48 8d 94 24 00 01 00 	lea    0x100(%rsp),%rdx
  401194:	00 
  401195:	be a0 31 40 00       	mov    $0x4031a0,%esi
  40119a:	bf 01 00 00 00       	mov    $0x1,%edi
  40119f:	b8 00 00 00 00       	mov    $0x0,%eax
  4011a4:	e8 77 fc ff ff       	callq  400e20 <__printf_chk@plt>
  4011a9:	bf 08 00 00 00       	mov    $0x8,%edi
  4011ae:	e8 bd fc ff ff       	callq  400e70 <exit@plt>
  4011b3:	48 8b 84 24 08 21 00 	mov    0x2108(%rsp),%rax
  4011ba:	00 
  4011bb:	64 48 33 04 25 28 00 	xor    %fs:0x28,%rax
  4011c2:	00 00 
  4011c4:	74 05                	je     4011cb <initialize_target+0x17b>
  4011c6:	e8 45 fb ff ff       	callq  400d10 <__stack_chk_fail@plt>
  4011cb:	48 81 c4 18 21 00 00 	add    $0x2118,%rsp
  4011d2:	5b                   	pop    %rbx
  4011d3:	5d                   	pop    %rbp
  4011d4:	c3                   	retq   

00000000004011d5 <main>:
  4011d5:	41 56                	push   %r14
  4011d7:	41 55                	push   %r13
  4011d9:	41 54                	push   %r12
  4011db:	55                   	push   %rbp
  4011dc:	53                   	push   %rbx
  4011dd:	41 89 fc             	mov    %edi,%r12d
  4011e0:	48 89 f3             	mov    %rsi,%rbx
  4011e3:	be 26 20 40 00       	mov    $0x402026,%esi
  4011e8:	bf 0b 00 00 00       	mov    $0xb,%edi
  4011ed:	e8 8e fb ff ff       	callq  400d80 <signal@plt>
  4011f2:	be d8 1f 40 00       	mov    $0x401fd8,%esi
  4011f7:	bf 07 00 00 00       	mov    $0x7,%edi
  4011fc:	e8 7f fb ff ff       	callq  400d80 <signal@plt>
  401201:	be 74 20 40 00       	mov    $0x402074,%esi
  401206:	bf 04 00 00 00       	mov    $0x4,%edi
  40120b:	e8 70 fb ff ff       	callq  400d80 <signal@plt>
  401210:	83 3d 11 43 20 00 00 	cmpl   $0x0,0x204311(%rip)        # 605528 <is_checker>
  401217:	74 20                	je     401239 <main+0x64>
  401219:	be c2 20 40 00       	mov    $0x4020c2,%esi
  40121e:	bf 0e 00 00 00       	mov    $0xe,%edi
  401223:	e8 58 fb ff ff       	callq  400d80 <signal@plt>
  401228:	bf 05 00 00 00       	mov    $0x5,%edi
  40122d:	e8 0e fb ff ff       	callq  400d40 <alarm@plt>
  401232:	bd 6a 32 40 00       	mov    $0x40326a,%ebp
  401237:	eb 05                	jmp    40123e <main+0x69>
  401239:	bd 65 32 40 00       	mov    $0x403265,%ebp
  40123e:	48 8b 05 7b 42 20 00 	mov    0x20427b(%rip),%rax        # 6054c0 <stdin@@GLIBC_2.2.5>
  401245:	48 89 05 c4 42 20 00 	mov    %rax,0x2042c4(%rip)        # 605510 <infile>
  40124c:	41 bd 00 00 00 00    	mov    $0x0,%r13d
  401252:	41 be 00 00 00 00    	mov    $0x0,%r14d
  401258:	e9 c6 00 00 00       	jmpq   401323 <main+0x14e>
  40125d:	83 e8 61             	sub    $0x61,%eax
  401260:	3c 10                	cmp    $0x10,%al
  401262:	0f 87 9c 00 00 00    	ja     401304 <main+0x12f>
  401268:	0f b6 c0             	movzbl %al,%eax
  40126b:	ff 24 c5 b0 32 40 00 	jmpq   *0x4032b0(,%rax,8)
  401272:	48 8b 3b             	mov    (%rbx),%rdi
  401275:	e8 4c fd ff ff       	callq  400fc6 <usage>
  40127a:	be bd 35 40 00       	mov    $0x4035bd,%esi
  40127f:	48 8b 3d 42 42 20 00 	mov    0x204242(%rip),%rdi        # 6054c8 <optarg@@GLIBC_2.2.5>
  401286:	e8 a5 fb ff ff       	callq  400e30 <fopen@plt>
  40128b:	48 89 05 7e 42 20 00 	mov    %rax,0x20427e(%rip)        # 605510 <infile>
  401292:	48 85 c0             	test   %rax,%rax
  401295:	0f 85 88 00 00 00    	jne    401323 <main+0x14e>
  40129b:	48 8b 0d 26 42 20 00 	mov    0x204226(%rip),%rcx        # 6054c8 <optarg@@GLIBC_2.2.5>
  4012a2:	ba 72 32 40 00       	mov    $0x403272,%edx
  4012a7:	be 01 00 00 00       	mov    $0x1,%esi
  4012ac:	48 8b 3d 2d 42 20 00 	mov    0x20422d(%rip),%rdi        # 6054e0 <stderr@@GLIBC_2.2.5>
  4012b3:	e8 d8 fb ff ff       	callq  400e90 <__fprintf_chk@plt>
  4012b8:	b8 01 00 00 00       	mov    $0x1,%eax
  4012bd:	e9 e4 00 00 00       	jmpq   4013a6 <main+0x1d1>
  4012c2:	ba 10 00 00 00       	mov    $0x10,%edx
  4012c7:	be 00 00 00 00       	mov    $0x0,%esi
  4012cc:	48 8b 3d f5 41 20 00 	mov    0x2041f5(%rip),%rdi        # 6054c8 <optarg@@GLIBC_2.2.5>
  4012d3:	e8 78 fb ff ff       	callq  400e50 <strtoul@plt>
  4012d8:	41 89 c6             	mov    %eax,%r14d
  4012db:	eb 46                	jmp    401323 <main+0x14e>
  4012dd:	ba 0a 00 00 00       	mov    $0xa,%edx
  4012e2:	be 00 00 00 00       	mov    $0x0,%esi
  4012e7:	48 8b 3d da 41 20 00 	mov    0x2041da(%rip),%rdi        # 6054c8 <optarg@@GLIBC_2.2.5>
  4012ee:	e8 bd fa ff ff       	callq  400db0 <strtol@plt>
  4012f3:	41 89 c5             	mov    %eax,%r13d
  4012f6:	eb 2b                	jmp    401323 <main+0x14e>
  4012f8:	c7 05 a6 41 20 00 00 	movl   $0x0,0x2041a6(%rip)        # 6054a8 <notify>
  4012ff:	00 00 00 
  401302:	eb 1f                	jmp    401323 <main+0x14e>
  401304:	0f be d2             	movsbl %dl,%edx
  401307:	be 8f 32 40 00       	mov    $0x40328f,%esi
  40130c:	bf 01 00 00 00       	mov    $0x1,%edi
  401311:	b8 00 00 00 00       	mov    $0x0,%eax
  401316:	e8 05 fb ff ff       	callq  400e20 <__printf_chk@plt>
  40131b:	48 8b 3b             	mov    (%rbx),%rdi
  40131e:	e8 a3 fc ff ff       	callq  400fc6 <usage>
  401323:	48 89 ea             	mov    %rbp,%rdx
  401326:	48 89 de             	mov    %rbx,%rsi
  401329:	44 89 e7             	mov    %r12d,%edi
  40132c:	e8 0f fb ff ff       	callq  400e40 <getopt@plt>
  401331:	89 c2                	mov    %eax,%edx
  401333:	3c ff                	cmp    $0xff,%al
  401335:	0f 85 22 ff ff ff    	jne    40125d <main+0x88>
  40133b:	be 01 00 00 00       	mov    $0x1,%esi
  401340:	44 89 ef             	mov    %r13d,%edi
  401343:	e8 08 fd ff ff       	callq  401050 <initialize_target>
  401348:	83 3d d9 41 20 00 00 	cmpl   $0x0,0x2041d9(%rip)        # 605528 <is_checker>
  40134f:	74 2a                	je     40137b <main+0x1a6>
  401351:	44 3b 35 c8 41 20 00 	cmp    0x2041c8(%rip),%r14d        # 605520 <authkey>
  401358:	74 21                	je     40137b <main+0x1a6>
  40135a:	44 89 f2             	mov    %r14d,%edx
  40135d:	be c8 31 40 00       	mov    $0x4031c8,%esi
  401362:	bf 01 00 00 00       	mov    $0x1,%edi
  401367:	b8 00 00 00 00       	mov    $0x0,%eax
  40136c:	e8 af fa ff ff       	callq  400e20 <__printf_chk@plt>
  401371:	b8 00 00 00 00       	mov    $0x0,%eax
  401376:	e8 f9 08 00 00       	callq  401c74 <check_fail>
  40137b:	8b 15 a3 41 20 00    	mov    0x2041a3(%rip),%edx        # 605524 <cookie>
  401381:	be a2 32 40 00       	mov    $0x4032a2,%esi
  401386:	bf 01 00 00 00       	mov    $0x1,%edi
  40138b:	b8 00 00 00 00       	mov    $0x0,%eax
  401390:	e8 8b fa ff ff       	callq  400e20 <__printf_chk@plt>
  401395:	48 8b 3d 04 41 20 00 	mov    0x204104(%rip),%rdi        # 6054a0 <buf_offset>
  40139c:	e8 74 0d 00 00       	callq  402115 <launch>
  4013a1:	b8 00 00 00 00       	mov    $0x0,%eax
  4013a6:	5b                   	pop    %rbx
  4013a7:	5d                   	pop    %rbp
  4013a8:	41 5c                	pop    %r12
  4013aa:	41 5d                	pop    %r13
  4013ac:	41 5e                	pop    %r14
  4013ae:	c3                   	retq   

00000000004013af <scramble>:
  4013af:	48 83 ec 38          	sub    $0x38,%rsp
  4013b3:	64 48 8b 04 25 28 00 	mov    %fs:0x28,%rax
  4013ba:	00 00 
  4013bc:	48 89 44 24 28       	mov    %rax,0x28(%rsp)
  4013c1:	31 c0                	xor    %eax,%eax
  4013c3:	eb 10                	jmp    4013d5 <scramble+0x26>
  4013c5:	69 d0 85 06 00 00    	imul   $0x685,%eax,%edx
  4013cb:	01 fa                	add    %edi,%edx
  4013cd:	89 c1                	mov    %eax,%ecx
  4013cf:	89 14 8c             	mov    %edx,(%rsp,%rcx,4)
  4013d2:	83 c0 01             	add    $0x1,%eax
  4013d5:	83 f8 09             	cmp    $0x9,%eax
  4013d8:	76 eb                	jbe    4013c5 <scramble+0x16>
  4013da:	8b 44 24 10          	mov    0x10(%rsp),%eax
  4013de:	69 c0 77 06 00 00    	imul   $0x677,%eax,%eax
  4013e4:	89 44 24 10          	mov    %eax,0x10(%rsp)
  4013e8:	8b 44 24 0c          	mov    0xc(%rsp),%eax
  4013ec:	69 c0 40 fe 00 00    	imul   $0xfe40,%eax,%eax
  4013f2:	89 44 24 0c          	mov    %eax,0xc(%rsp)
  4013f6:	8b 04 24             	mov    (%rsp),%eax
  4013f9:	69 c0 51 bc 00 00    	imul   $0xbc51,%eax,%eax
  4013ff:	89 04 24             	mov    %eax,(%rsp)
  401402:	8b 44 24 04          	mov    0x4(%rsp),%eax
  401406:	69 c0 b5 5b 00 00    	imul   $0x5bb5,%eax,%eax
  40140c:	89 44 24 04          	mov    %eax,0x4(%rsp)
  401410:	8b 44 24 20          	mov    0x20(%rsp),%eax
  401414:	69 c0 54 1c 00 00    	imul   $0x1c54,%eax,%eax
  40141a:	89 44 24 20          	mov    %eax,0x20(%rsp)
  40141e:	8b 44 24 1c          	mov    0x1c(%rsp),%eax
  401422:	69 c0 fd 1d 00 00    	imul   $0x1dfd,%eax,%eax
  401428:	89 44 24 1c          	mov    %eax,0x1c(%rsp)
  40142c:	8b 44 24 04          	mov    0x4(%rsp),%eax
  401430:	69 c0 b2 f3 00 00    	imul   $0xf3b2,%eax,%eax
  401436:	89 44 24 04          	mov    %eax,0x4(%rsp)
  40143a:	8b 44 24 20          	mov    0x20(%rsp),%eax
  40143e:	69 c0 44 30 00 00    	imul   $0x3044,%eax,%eax
  401444:	89 44 24 20          	mov    %eax,0x20(%rsp)
  401448:	8b 44 24 0c          	mov    0xc(%rsp),%eax
  40144c:	69 c0 56 65 00 00    	imul   $0x6556,%eax,%eax
  401452:	89 44 24 0c          	mov    %eax,0xc(%rsp)
  401456:	8b 44 24 04          	mov    0x4(%rsp),%eax
  40145a:	69 c0 ce e6 00 00    	imul   $0xe6ce,%eax,%eax
  401460:	89 44 24 04          	mov    %eax,0x4(%rsp)
  401464:	8b 44 24 14          	mov    0x14(%rsp),%eax
  401468:	69 c0 54 65 00 00    	imul   $0x6554,%eax,%eax
  40146e:	89 44 24 14          	mov    %eax,0x14(%rsp)
  401472:	8b 44 24 0c          	mov    0xc(%rsp),%eax
  401476:	69 c0 d2 ac 00 00    	imul   $0xacd2,%eax,%eax
  40147c:	89 44 24 0c          	mov    %eax,0xc(%rsp)
  401480:	8b 44 24 1c          	mov    0x1c(%rsp),%eax
  401484:	69 c0 4b 3b 00 00    	imul   $0x3b4b,%eax,%eax
  40148a:	89 44 24 1c          	mov    %eax,0x1c(%rsp)
  40148e:	8b 44 24 10          	mov    0x10(%rsp),%eax
  401492:	69 c0 43 fa 00 00    	imul   $0xfa43,%eax,%eax
  401498:	89 44 24 10          	mov    %eax,0x10(%rsp)
  40149c:	8b 44 24 20          	mov    0x20(%rsp),%eax
  4014a0:	69 c0 3e 50 00 00    	imul   $0x503e,%eax,%eax
  4014a6:	89 44 24 20          	mov    %eax,0x20(%rsp)
  4014aa:	8b 44 24 14          	mov    0x14(%rsp),%eax
  4014ae:	69 c0 61 9c 00 00    	imul   $0x9c61,%eax,%eax
  4014b4:	89 44 24 14          	mov    %eax,0x14(%rsp)
  4014b8:	8b 44 24 0c          	mov    0xc(%rsp),%eax
  4014bc:	69 c0 f8 58 00 00    	imul   $0x58f8,%eax,%eax
  4014c2:	89 44 24 0c          	mov    %eax,0xc(%rsp)
  4014c6:	8b 44 24 08          	mov    0x8(%rsp),%eax
  4014ca:	69 c0 6c 11 00 00    	imul   $0x116c,%eax,%eax
  4014d0:	89 44 24 08          	mov    %eax,0x8(%rsp)
  4014d4:	8b 44 24 04          	mov    0x4(%rsp),%eax
  4014d8:	69 c0 f8 b7 00 00    	imul   $0xb7f8,%eax,%eax
  4014de:	89 44 24 04          	mov    %eax,0x4(%rsp)
  4014e2:	8b 44 24 18          	mov    0x18(%rsp),%eax
  4014e6:	69 c0 2d e3 00 00    	imul   $0xe32d,%eax,%eax
  4014ec:	89 44 24 18          	mov    %eax,0x18(%rsp)
  4014f0:	8b 44 24 08          	mov    0x8(%rsp),%eax
  4014f4:	69 c0 55 0a 00 00    	imul   $0xa55,%eax,%eax
  4014fa:	89 44 24 08          	mov    %eax,0x8(%rsp)
  4014fe:	8b 44 24 04          	mov    0x4(%rsp),%eax
  401502:	69 c0 60 3e 00 00    	imul   $0x3e60,%eax,%eax
  401508:	89 44 24 04          	mov    %eax,0x4(%rsp)
  40150c:	8b 44 24 18          	mov    0x18(%rsp),%eax
  401510:	69 c0 d8 c4 00 00    	imul   $0xc4d8,%eax,%eax
  401516:	89 44 24 18          	mov    %eax,0x18(%rsp)
  40151a:	8b 44 24 10          	mov    0x10(%rsp),%eax
  40151e:	69 c0 ca 6a 00 00    	imul   $0x6aca,%eax,%eax
  401524:	89 44 24 10          	mov    %eax,0x10(%rsp)
  401528:	8b 44 24 18          	mov    0x18(%rsp),%eax
  40152c:	69 c0 3b 29 00 00    	imul   $0x293b,%eax,%eax
  401532:	89 44 24 18          	mov    %eax,0x18(%rsp)
  401536:	8b 44 24 0c          	mov    0xc(%rsp),%eax
  40153a:	69 c0 9b 2f 00 00    	imul   $0x2f9b,%eax,%eax
  401540:	89 44 24 0c          	mov    %eax,0xc(%rsp)
  401544:	8b 44 24 0c          	mov    0xc(%rsp),%eax
  401548:	69 c0 98 2b 00 00    	imul   $0x2b98,%eax,%eax
  40154e:	89 44 24 0c          	mov    %eax,0xc(%rsp)
  401552:	8b 44 24 1c          	mov    0x1c(%rsp),%eax
  401556:	69 c0 9c f8 00 00    	imul   $0xf89c,%eax,%eax
  40155c:	89 44 24 1c          	mov    %eax,0x1c(%rsp)
  401560:	8b 44 24 18          	mov    0x18(%rsp),%eax
  401564:	69 c0 7e 4c 00 00    	imul   $0x4c7e,%eax,%eax
  40156a:	89 44 24 18          	mov    %eax,0x18(%rsp)
  40156e:	8b 44 24 20          	mov    0x20(%rsp),%eax
  401572:	69 c0 bf fc 00 00    	imul   $0xfcbf,%eax,%eax
  401578:	89 44 24 20          	mov    %eax,0x20(%rsp)
  40157c:	8b 44 24 24          	mov    0x24(%rsp),%eax
  401580:	69 c0 dc 6f 00 00    	imul   $0x6fdc,%eax,%eax
  401586:	89 44 24 24          	mov    %eax,0x24(%rsp)
  40158a:	8b 44 24 08          	mov    0x8(%rsp),%eax
  40158e:	69 c0 71 f3 00 00    	imul   $0xf371,%eax,%eax
  401594:	89 44 24 08          	mov    %eax,0x8(%rsp)
  401598:	8b 44 24 0c          	mov    0xc(%rsp),%eax
  40159c:	69 c0 c2 33 00 00    	imul   $0x33c2,%eax,%eax
  4015a2:	89 44 24 0c          	mov    %eax,0xc(%rsp)
  4015a6:	8b 04 24             	mov    (%rsp),%eax
  4015a9:	69 c0 1e de 00 00    	imul   $0xde1e,%eax,%eax
  4015af:	89 04 24             	mov    %eax,(%rsp)
  4015b2:	8b 44 24 1c          	mov    0x1c(%rsp),%eax
  4015b6:	69 c0 fe 71 00 00    	imul   $0x71fe,%eax,%eax
  4015bc:	89 44 24 1c          	mov    %eax,0x1c(%rsp)
  4015c0:	8b 44 24 14          	mov    0x14(%rsp),%eax
  4015c4:	69 c0 07 c0 00 00    	imul   $0xc007,%eax,%eax
  4015ca:	89 44 24 14          	mov    %eax,0x14(%rsp)
  4015ce:	8b 44 24 14          	mov    0x14(%rsp),%eax
  4015d2:	69 c0 76 c2 00 00    	imul   $0xc276,%eax,%eax
  4015d8:	89 44 24 14          	mov    %eax,0x14(%rsp)
  4015dc:	8b 44 24 18          	mov    0x18(%rsp),%eax
  4015e0:	69 c0 5b 7a 00 00    	imul   $0x7a5b,%eax,%eax
  4015e6:	89 44 24 18          	mov    %eax,0x18(%rsp)
  4015ea:	8b 44 24 24          	mov    0x24(%rsp),%eax
  4015ee:	69 c0 0b 6d 00 00    	imul   $0x6d0b,%eax,%eax
  4015f4:	89 44 24 24          	mov    %eax,0x24(%rsp)
  4015f8:	8b 44 24 10          	mov    0x10(%rsp),%eax
  4015fc:	69 c0 7c b1 00 00    	imul   $0xb17c,%eax,%eax
  401602:	89 44 24 10          	mov    %eax,0x10(%rsp)
  401606:	8b 44 24 24          	mov    0x24(%rsp),%eax
  40160a:	69 c0 bd 36 00 00    	imul   $0x36bd,%eax,%eax
  401610:	89 44 24 24          	mov    %eax,0x24(%rsp)
  401614:	8b 44 24 04          	mov    0x4(%rsp),%eax
  401618:	69 c0 d6 24 00 00    	imul   $0x24d6,%eax,%eax
  40161e:	89 44 24 04          	mov    %eax,0x4(%rsp)
  401622:	8b 44 24 20          	mov    0x20(%rsp),%eax
  401626:	69 c0 84 bd 00 00    	imul   $0xbd84,%eax,%eax
  40162c:	89 44 24 20          	mov    %eax,0x20(%rsp)
  401630:	8b 44 24 14          	mov    0x14(%rsp),%eax
  401634:	69 c0 38 c9 00 00    	imul   $0xc938,%eax,%eax
  40163a:	89 44 24 14          	mov    %eax,0x14(%rsp)
  40163e:	8b 44 24 08          	mov    0x8(%rsp),%eax
  401642:	69 c0 52 10 00 00    	imul   $0x1052,%eax,%eax
  401648:	89 44 24 08          	mov    %eax,0x8(%rsp)
  40164c:	8b 44 24 08          	mov    0x8(%rsp),%eax
  401650:	69 c0 bf a6 00 00    	imul   $0xa6bf,%eax,%eax
  401656:	89 44 24 08          	mov    %eax,0x8(%rsp)
  40165a:	8b 44 24 24          	mov    0x24(%rsp),%eax
  40165e:	69 c0 19 5f 00 00    	imul   $0x5f19,%eax,%eax
  401664:	89 44 24 24          	mov    %eax,0x24(%rsp)
  401668:	8b 44 24 1c          	mov    0x1c(%rsp),%eax
  40166c:	69 c0 03 49 00 00    	imul   $0x4903,%eax,%eax
  401672:	89 44 24 1c          	mov    %eax,0x1c(%rsp)
  401676:	8b 44 24 04          	mov    0x4(%rsp),%eax
  40167a:	69 c0 0e 9f 00 00    	imul   $0x9f0e,%eax,%eax
  401680:	89 44 24 04          	mov    %eax,0x4(%rsp)
  401684:	8b 44 24 0c          	mov    0xc(%rsp),%eax
  401688:	69 c0 96 7e 00 00    	imul   $0x7e96,%eax,%eax
  40168e:	89 44 24 0c          	mov    %eax,0xc(%rsp)
  401692:	8b 44 24 24          	mov    0x24(%rsp),%eax
  401696:	69 c0 6d e8 00 00    	imul   $0xe86d,%eax,%eax
  40169c:	89 44 24 24          	mov    %eax,0x24(%rsp)
  4016a0:	8b 44 24 0c          	mov    0xc(%rsp),%eax
  4016a4:	69 c0 60 8d 00 00    	imul   $0x8d60,%eax,%eax
  4016aa:	89 44 24 0c          	mov    %eax,0xc(%rsp)
  4016ae:	8b 44 24 1c          	mov    0x1c(%rsp),%eax
  4016b2:	69 c0 04 3d 00 00    	imul   $0x3d04,%eax,%eax
  4016b8:	89 44 24 1c          	mov    %eax,0x1c(%rsp)
  4016bc:	8b 44 24 04          	mov    0x4(%rsp),%eax
  4016c0:	69 c0 31 32 00 00    	imul   $0x3231,%eax,%eax
  4016c6:	89 44 24 04          	mov    %eax,0x4(%rsp)
  4016ca:	8b 44 24 04          	mov    0x4(%rsp),%eax
  4016ce:	69 c0 e0 ec 00 00    	imul   $0xece0,%eax,%eax
  4016d4:	89 44 24 04          	mov    %eax,0x4(%rsp)
  4016d8:	8b 44 24 18          	mov    0x18(%rsp),%eax
  4016dc:	69 c0 55 40 00 00    	imul   $0x4055,%eax,%eax
  4016e2:	89 44 24 18          	mov    %eax,0x18(%rsp)
  4016e6:	8b 44 24 14          	mov    0x14(%rsp),%eax
  4016ea:	69 c0 c4 c4 00 00    	imul   $0xc4c4,%eax,%eax
  4016f0:	89 44 24 14          	mov    %eax,0x14(%rsp)
  4016f4:	8b 44 24 08          	mov    0x8(%rsp),%eax
  4016f8:	69 c0 f3 85 00 00    	imul   $0x85f3,%eax,%eax
  4016fe:	89 44 24 08          	mov    %eax,0x8(%rsp)
  401702:	8b 44 24 20          	mov    0x20(%rsp),%eax
  401706:	69 c0 9e 82 00 00    	imul   $0x829e,%eax,%eax
  40170c:	89 44 24 20          	mov    %eax,0x20(%rsp)
  401710:	8b 44 24 08          	mov    0x8(%rsp),%eax
  401714:	69 c0 4b 8c 00 00    	imul   $0x8c4b,%eax,%eax
  40171a:	89 44 24 08          	mov    %eax,0x8(%rsp)
  40171e:	8b 44 24 14          	mov    0x14(%rsp),%eax
  401722:	69 c0 24 15 00 00    	imul   $0x1524,%eax,%eax
  401728:	89 44 24 14          	mov    %eax,0x14(%rsp)
  40172c:	8b 44 24 14          	mov    0x14(%rsp),%eax
  401730:	69 c0 1f 13 00 00    	imul   $0x131f,%eax,%eax
  401736:	89 44 24 14          	mov    %eax,0x14(%rsp)
  40173a:	8b 44 24 10          	mov    0x10(%rsp),%eax
  40173e:	69 c0 3c cd 00 00    	imul   $0xcd3c,%eax,%eax
  401744:	89 44 24 10          	mov    %eax,0x10(%rsp)
  401748:	8b 04 24             	mov    (%rsp),%eax
  40174b:	69 c0 18 07 00 00    	imul   $0x718,%eax,%eax
  401751:	89 04 24             	mov    %eax,(%rsp)
  401754:	8b 44 24 08          	mov    0x8(%rsp),%eax
  401758:	69 c0 43 83 00 00    	imul   $0x8343,%eax,%eax
  40175e:	89 44 24 08          	mov    %eax,0x8(%rsp)
  401762:	8b 44 24 20          	mov    0x20(%rsp),%eax
  401766:	69 c0 57 7d 00 00    	imul   $0x7d57,%eax,%eax
  40176c:	89 44 24 20          	mov    %eax,0x20(%rsp)
  401770:	8b 44 24 10          	mov    0x10(%rsp),%eax
  401774:	69 c0 4b c4 00 00    	imul   $0xc44b,%eax,%eax
  40177a:	89 44 24 10          	mov    %eax,0x10(%rsp)
  40177e:	8b 44 24 04          	mov    0x4(%rsp),%eax
  401782:	69 c0 93 16 00 00    	imul   $0x1693,%eax,%eax
  401788:	89 44 24 04          	mov    %eax,0x4(%rsp)
  40178c:	8b 44 24 08          	mov    0x8(%rsp),%eax
  401790:	69 c0 73 12 00 00    	imul   $0x1273,%eax,%eax
  401796:	89 44 24 08          	mov    %eax,0x8(%rsp)
  40179a:	8b 44 24 08          	mov    0x8(%rsp),%eax
  40179e:	69 c0 5e ab 00 00    	imul   $0xab5e,%eax,%eax
  4017a4:	89 44 24 08          	mov    %eax,0x8(%rsp)
  4017a8:	8b 44 24 20          	mov    0x20(%rsp),%eax
  4017ac:	69 c0 71 2c 00 00    	imul   $0x2c71,%eax,%eax
  4017b2:	89 44 24 20          	mov    %eax,0x20(%rsp)
  4017b6:	8b 44 24 0c          	mov    0xc(%rsp),%eax
  4017ba:	69 c0 f2 22 00 00    	imul   $0x22f2,%eax,%eax
  4017c0:	89 44 24 0c          	mov    %eax,0xc(%rsp)
  4017c4:	8b 44 24 24          	mov    0x24(%rsp),%eax
  4017c8:	69 c0 df 50 00 00    	imul   $0x50df,%eax,%eax
  4017ce:	89 44 24 24          	mov    %eax,0x24(%rsp)
  4017d2:	8b 44 24 04          	mov    0x4(%rsp),%eax
  4017d6:	69 c0 7e 73 00 00    	imul   $0x737e,%eax,%eax
  4017dc:	89 44 24 04          	mov    %eax,0x4(%rsp)
  4017e0:	8b 44 24 1c          	mov    0x1c(%rsp),%eax
  4017e4:	69 c0 11 f8 00 00    	imul   $0xf811,%eax,%eax
  4017ea:	89 44 24 1c          	mov    %eax,0x1c(%rsp)
  4017ee:	8b 44 24 04          	mov    0x4(%rsp),%eax
  4017f2:	69 c0 6e 66 00 00    	imul   $0x666e,%eax,%eax
  4017f8:	89 44 24 04          	mov    %eax,0x4(%rsp)
  4017fc:	8b 44 24 0c          	mov    0xc(%rsp),%eax
  401800:	69 c0 d4 32 00 00    	imul   $0x32d4,%eax,%eax
  401806:	89 44 24 0c          	mov    %eax,0xc(%rsp)
  40180a:	8b 04 24             	mov    (%rsp),%eax
  40180d:	69 c0 72 81 00 00    	imul   $0x8172,%eax,%eax
  401813:	89 04 24             	mov    %eax,(%rsp)
  401816:	8b 44 24 04          	mov    0x4(%rsp),%eax
  40181a:	69 c0 af d5 00 00    	imul   $0xd5af,%eax,%eax
  401820:	89 44 24 04          	mov    %eax,0x4(%rsp)
  401824:	8b 44 24 18          	mov    0x18(%rsp),%eax
  401828:	69 c0 5b 6c 00 00    	imul   $0x6c5b,%eax,%eax
  40182e:	89 44 24 18          	mov    %eax,0x18(%rsp)
  401832:	8b 44 24 20          	mov    0x20(%rsp),%eax
  401836:	69 c0 39 0e 00 00    	imul   $0xe39,%eax,%eax
  40183c:	89 44 24 20          	mov    %eax,0x20(%rsp)
  401840:	8b 44 24 24          	mov    0x24(%rsp),%eax
  401844:	69 c0 a3 c4 00 00    	imul   $0xc4a3,%eax,%eax
  40184a:	89 44 24 24          	mov    %eax,0x24(%rsp)
  40184e:	8b 44 24 20          	mov    0x20(%rsp),%eax
  401852:	69 c0 6a f4 00 00    	imul   $0xf46a,%eax,%eax
  401858:	89 44 24 20          	mov    %eax,0x20(%rsp)
  40185c:	8b 44 24 20          	mov    0x20(%rsp),%eax
  401860:	69 c0 d4 d3 00 00    	imul   $0xd3d4,%eax,%eax
  401866:	89 44 24 20          	mov    %eax,0x20(%rsp)
  40186a:	8b 44 24 0c          	mov    0xc(%rsp),%eax
  40186e:	69 c0 fb 23 00 00    	imul   $0x23fb,%eax,%eax
  401874:	89 44 24 0c          	mov    %eax,0xc(%rsp)
  401878:	8b 44 24 10          	mov    0x10(%rsp),%eax
  40187c:	69 c0 32 06 00 00    	imul   $0x632,%eax,%eax
  401882:	89 44 24 10          	mov    %eax,0x10(%rsp)
  401886:	8b 44 24 10          	mov    0x10(%rsp),%eax
  40188a:	69 c0 e7 6a 00 00    	imul   $0x6ae7,%eax,%eax
  401890:	89 44 24 10          	mov    %eax,0x10(%rsp)
  401894:	8b 44 24 20          	mov    0x20(%rsp),%eax
  401898:	69 c0 a2 41 00 00    	imul   $0x41a2,%eax,%eax
  40189e:	89 44 24 20          	mov    %eax,0x20(%rsp)
  4018a2:	8b 04 24             	mov    (%rsp),%eax
  4018a5:	69 c0 09 d2 00 00    	imul   $0xd209,%eax,%eax
  4018ab:	89 04 24             	mov    %eax,(%rsp)
  4018ae:	8b 44 24 14          	mov    0x14(%rsp),%eax
  4018b2:	69 c0 44 8f 00 00    	imul   $0x8f44,%eax,%eax
  4018b8:	89 44 24 14          	mov    %eax,0x14(%rsp)
  4018bc:	8b 44 24 20          	mov    0x20(%rsp),%eax
  4018c0:	69 c0 e9 b4 00 00    	imul   $0xb4e9,%eax,%eax
  4018c6:	89 44 24 20          	mov    %eax,0x20(%rsp)
  4018ca:	ba 00 00 00 00       	mov    $0x0,%edx
  4018cf:	b8 00 00 00 00       	mov    $0x0,%eax
  4018d4:	eb 0a                	jmp    4018e0 <scramble+0x531>
  4018d6:	89 d1                	mov    %edx,%ecx
  4018d8:	8b 0c 8c             	mov    (%rsp,%rcx,4),%ecx
  4018db:	01 c8                	add    %ecx,%eax
  4018dd:	83 c2 01             	add    $0x1,%edx
  4018e0:	83 fa 09             	cmp    $0x9,%edx
  4018e3:	76 f1                	jbe    4018d6 <scramble+0x527>
  4018e5:	48 8b 74 24 28       	mov    0x28(%rsp),%rsi
  4018ea:	64 48 33 34 25 28 00 	xor    %fs:0x28,%rsi
  4018f1:	00 00 
  4018f3:	74 05                	je     4018fa <scramble+0x54b>
  4018f5:	e8 16 f4 ff ff       	callq  400d10 <__stack_chk_fail@plt>
  4018fa:	48 83 c4 38          	add    $0x38,%rsp
  4018fe:	c3                   	retq   

00000000004018ff <getbuf>:
  4018ff:	48 83 ec 18          	sub    $0x18,%rsp
  401903:	48 89 e7             	mov    %rsp,%rdi
  401906:	e8 9e 03 00 00       	callq  401ca9 <Gets>
  40190b:	b8 01 00 00 00       	mov    $0x1,%eax
  401910:	48 83 c4 18          	add    $0x18,%rsp
  401914:	c3                   	retq   

0000000000401915 <touch1>:
  401915:	48 83 ec 08          	sub    $0x8,%rsp
  401919:	c7 05 f9 3b 20 00 01 	movl   $0x1,0x203bf9(%rip)        # 60551c <vlevel>
  401920:	00 00 00 
  401923:	bf 16 34 40 00       	mov    $0x403416,%edi
  401928:	e8 c3 f3 ff ff       	callq  400cf0 <puts@plt>
  40192d:	bf 01 00 00 00       	mov    $0x1,%edi
  401932:	e8 b7 05 00 00       	callq  401eee <validate>
  401937:	bf 00 00 00 00       	mov    $0x0,%edi
  40193c:	e8 2f f5 ff ff       	callq  400e70 <exit@plt>

0000000000401941 <touch2>:
  401941:	48 83 ec 08          	sub    $0x8,%rsp
  401945:	89 fa                	mov    %edi,%edx
  401947:	c7 05 cb 3b 20 00 02 	movl   $0x2,0x203bcb(%rip)        # 60551c <vlevel>
  40194e:	00 00 00 
  401951:	39 3d cd 3b 20 00    	cmp    %edi,0x203bcd(%rip)        # 605524 <cookie>
  401957:	75 20                	jne    401979 <touch2+0x38>
  401959:	be 38 34 40 00       	mov    $0x403438,%esi
  40195e:	bf 01 00 00 00       	mov    $0x1,%edi
  401963:	b8 00 00 00 00       	mov    $0x0,%eax
  401968:	e8 b3 f4 ff ff       	callq  400e20 <__printf_chk@plt>
  40196d:	bf 02 00 00 00       	mov    $0x2,%edi
  401972:	e8 77 05 00 00       	callq  401eee <validate>
  401977:	eb 1e                	jmp    401997 <touch2+0x56>
  401979:	be 60 34 40 00       	mov    $0x403460,%esi
  40197e:	bf 01 00 00 00       	mov    $0x1,%edi
  401983:	b8 00 00 00 00       	mov    $0x0,%eax
  401988:	e8 93 f4 ff ff       	callq  400e20 <__printf_chk@plt>
  40198d:	bf 02 00 00 00       	mov    $0x2,%edi
  401992:	e8 19 06 00 00       	callq  401fb0 <fail>
  401997:	bf 00 00 00 00       	mov    $0x0,%edi
  40199c:	e8 cf f4 ff ff       	callq  400e70 <exit@plt>

00000000004019a1 <hexmatch>:
  4019a1:	41 54                	push   %r12
  4019a3:	55                   	push   %rbp
  4019a4:	53                   	push   %rbx
  4019a5:	48 83 c4 80          	add    $0xffffffffffffff80,%rsp
  4019a9:	89 fd                	mov    %edi,%ebp
  4019ab:	48 89 f3             	mov    %rsi,%rbx
  4019ae:	64 48 8b 04 25 28 00 	mov    %fs:0x28,%rax
  4019b5:	00 00 
  4019b7:	48 89 44 24 78       	mov    %rax,0x78(%rsp)
  4019bc:	31 c0                	xor    %eax,%eax
  4019be:	e8 1d f4 ff ff       	callq  400de0 <random@plt>
  4019c3:	48 89 c1             	mov    %rax,%rcx
  4019c6:	48 ba 0b d7 a3 70 3d 	movabs $0xa3d70a3d70a3d70b,%rdx
  4019cd:	0a d7 a3 
  4019d0:	48 f7 ea             	imul   %rdx
  4019d3:	48 01 ca             	add    %rcx,%rdx
  4019d6:	48 c1 fa 06          	sar    $0x6,%rdx
  4019da:	48 89 c8             	mov    %rcx,%rax
  4019dd:	48 c1 f8 3f          	sar    $0x3f,%rax
  4019e1:	48 29 c2             	sub    %rax,%rdx
  4019e4:	48 8d 04 92          	lea    (%rdx,%rdx,4),%rax
  4019e8:	48 8d 14 80          	lea    (%rax,%rax,4),%rdx
  4019ec:	48 8d 04 95 00 00 00 	lea    0x0(,%rdx,4),%rax
  4019f3:	00 
  4019f4:	48 29 c1             	sub    %rax,%rcx
  4019f7:	4c 8d 24 0c          	lea    (%rsp,%rcx,1),%r12
  4019fb:	41 89 e8             	mov    %ebp,%r8d
  4019fe:	b9 33 34 40 00       	mov    $0x403433,%ecx
  401a03:	48 c7 c2 ff ff ff ff 	mov    $0xffffffffffffffff,%rdx
  401a0a:	be 01 00 00 00       	mov    $0x1,%esi
  401a0f:	4c 89 e7             	mov    %r12,%rdi
  401a12:	b8 00 00 00 00       	mov    $0x0,%eax
  401a17:	e8 84 f4 ff ff       	callq  400ea0 <__sprintf_chk@plt>
  401a1c:	ba 09 00 00 00       	mov    $0x9,%edx
  401a21:	4c 89 e6             	mov    %r12,%rsi
  401a24:	48 89 df             	mov    %rbx,%rdi
  401a27:	e8 a4 f2 ff ff       	callq  400cd0 <strncmp@plt>
  401a2c:	85 c0                	test   %eax,%eax
  401a2e:	0f 94 c0             	sete   %al
  401a31:	48 8b 5c 24 78       	mov    0x78(%rsp),%rbx
  401a36:	64 48 33 1c 25 28 00 	xor    %fs:0x28,%rbx
  401a3d:	00 00 
  401a3f:	74 05                	je     401a46 <hexmatch+0xa5>
  401a41:	e8 ca f2 ff ff       	callq  400d10 <__stack_chk_fail@plt>
  401a46:	0f b6 c0             	movzbl %al,%eax
  401a49:	48 83 ec 80          	sub    $0xffffffffffffff80,%rsp
  401a4d:	5b                   	pop    %rbx
  401a4e:	5d                   	pop    %rbp
  401a4f:	41 5c                	pop    %r12
  401a51:	c3                   	retq   

0000000000401a52 <touch3>:
  401a52:	53                   	push   %rbx
  401a53:	48 89 fb             	mov    %rdi,%rbx
  401a56:	c7 05 bc 3a 20 00 03 	movl   $0x3,0x203abc(%rip)        # 60551c <vlevel>
  401a5d:	00 00 00 
  401a60:	48 89 fe             	mov    %rdi,%rsi
  401a63:	8b 3d bb 3a 20 00    	mov    0x203abb(%rip),%edi        # 605524 <cookie>
  401a69:	e8 33 ff ff ff       	callq  4019a1 <hexmatch>
  401a6e:	85 c0                	test   %eax,%eax
  401a70:	74 23                	je     401a95 <touch3+0x43>
  401a72:	48 89 da             	mov    %rbx,%rdx
  401a75:	be 88 34 40 00       	mov    $0x403488,%esi
  401a7a:	bf 01 00 00 00       	mov    $0x1,%edi
  401a7f:	b8 00 00 00 00       	mov    $0x0,%eax
  401a84:	e8 97 f3 ff ff       	callq  400e20 <__printf_chk@plt>
  401a89:	bf 03 00 00 00       	mov    $0x3,%edi
  401a8e:	e8 5b 04 00 00       	callq  401eee <validate>
  401a93:	eb 21                	jmp    401ab6 <touch3+0x64>
  401a95:	48 89 da             	mov    %rbx,%rdx
  401a98:	be b0 34 40 00       	mov    $0x4034b0,%esi
  401a9d:	bf 01 00 00 00       	mov    $0x1,%edi
  401aa2:	b8 00 00 00 00       	mov    $0x0,%eax
  401aa7:	e8 74 f3 ff ff       	callq  400e20 <__printf_chk@plt>
  401aac:	bf 03 00 00 00       	mov    $0x3,%edi
  401ab1:	e8 fa 04 00 00       	callq  401fb0 <fail>
  401ab6:	bf 00 00 00 00       	mov    $0x0,%edi
  401abb:	e8 b0 f3 ff ff       	callq  400e70 <exit@plt>

0000000000401ac0 <test>:
  401ac0:	48 83 ec 08          	sub    $0x8,%rsp
  401ac4:	b8 00 00 00 00       	mov    $0x0,%eax
  401ac9:	e8 31 fe ff ff       	callq  4018ff <getbuf>
  401ace:	89 c2                	mov    %eax,%edx
  401ad0:	be d8 34 40 00       	mov    $0x4034d8,%esi
  401ad5:	bf 01 00 00 00       	mov    $0x1,%edi
  401ada:	b8 00 00 00 00       	mov    $0x0,%eax
  401adf:	e8 3c f3 ff ff       	callq  400e20 <__printf_chk@plt>
  401ae4:	48 83 c4 08          	add    $0x8,%rsp
  401ae8:	c3                   	retq   

0000000000401ae9 <start_farm>:
  401ae9:	b8 01 00 00 00       	mov    $0x1,%eax
  401aee:	c3                   	retq   

0000000000401aef <setval_321>:
  401aef:	c7 07 35 58 91 c3    	movl   $0xc3915835,(%rdi)
  401af5:	c3                   	retq   

0000000000401af6 <setval_487>:
  401af6:	c7 07 48 89 c7 c3    	movl   $0xc3c78948,(%rdi)
  401afc:	c3                   	retq   

0000000000401afd <addval_398>:
  401afd:	8d 87 48 89 c7 c3    	lea    -0x3c3876b8(%rdi),%eax
  401b03:	c3                   	retq   

0000000000401b04 <addval_207>:
  401b04:	8d 87 58 90 c3 b1    	lea    -0x4e3c6fa8(%rdi),%eax
  401b0a:	c3                   	retq   

0000000000401b0b <getval_381>:
  401b0b:	b8 58 90 91 c3       	mov    $0xc3919058,%eax
  401b10:	c3                   	retq   

0000000000401b11 <getval_343>:
  401b11:	b8 40 89 c7 c3       	mov    $0xc3c78940,%eax
  401b16:	c3                   	retq   

0000000000401b17 <addval_204>:
  401b17:	8d 87 48 89 c7 91    	lea    -0x6e3876b8(%rdi),%eax
  401b1d:	c3                   	retq   

0000000000401b1e <setval_316>:
  401b1e:	c7 07 fe db 58 90    	movl   $0x9058dbfe,(%rdi)
  401b24:	c3                   	retq   

0000000000401b25 <mid_farm>:
  401b25:	b8 01 00 00 00       	mov    $0x1,%eax
  401b2a:	c3                   	retq   

0000000000401b2b <add_xy>:
  401b2b:	48 8d 04 37          	lea    (%rdi,%rsi,1),%rax
  401b2f:	c3                   	retq   

0000000000401b30 <getval_284>:
  401b30:	b8 89 c1 20 c0       	mov    $0xc020c189,%eax
  401b35:	c3                   	retq   

0000000000401b36 <getval_426>:
  401b36:	b8 8b c1 08 c9       	mov    $0xc908c18b,%eax
  401b3b:	c3                   	retq   

0000000000401b3c <addval_113>:
  401b3c:	8d 87 48 89 e0 c2    	lea    -0x3d1f76b8(%rdi),%eax
  401b42:	c3                   	retq   

0000000000401b43 <addval_124>:
  401b43:	8d 87 c9 ca 84 c0    	lea    -0x3f7b3537(%rdi),%eax
  401b49:	c3                   	retq   

0000000000401b4a <getval_149>:
  401b4a:	b8 89 c1 18 db       	mov    $0xdb18c189,%eax
  401b4f:	c3                   	retq   

0000000000401b50 <setval_134>:
  401b50:	c7 07 77 89 ca 91    	movl   $0x91ca8977,(%rdi)
  401b56:	c3                   	retq   

0000000000401b57 <getval_485>:
  401b57:	b8 99 c1 90 c3       	mov    $0xc390c199,%eax
  401b5c:	c3                   	retq   

0000000000401b5d <setval_153>:
  401b5d:	c7 07 08 89 e0 c3    	movl   $0xc3e08908,(%rdi)
  401b63:	c3                   	retq   

0000000000401b64 <addval_311>:
  401b64:	8d 87 89 c1 91 90    	lea    -0x6f6e3e77(%rdi),%eax
  401b6a:	c3                   	retq   

0000000000401b6b <addval_172>:
  401b6b:	8d 87 48 89 e0 94    	lea    -0x6b1f76b8(%rdi),%eax
  401b71:	c3                   	retq   

0000000000401b72 <setval_181>:
  401b72:	c7 07 42 89 ca 90    	movl   $0x90ca8942,(%rdi)
  401b78:	c3                   	retq   

0000000000401b79 <getval_259>:
  401b79:	b8 ba 8d ca 90       	mov    $0x90ca8dba,%eax
  401b7e:	c3                   	retq   

0000000000401b7f <setval_497>:
  401b7f:	c7 07 48 81 e0 c3    	movl   $0xc3e08148,(%rdi)
  401b85:	c3                   	retq   

0000000000401b86 <setval_383>:
  401b86:	c7 07 99 d6 38 c9    	movl   $0xc938d699,(%rdi)
  401b8c:	c3                   	retq   

0000000000401b8d <addval_103>:
  401b8d:	8d 87 48 89 e0 90    	lea    -0x6f1f76b8(%rdi),%eax
  401b93:	c3                   	retq   

0000000000401b94 <setval_422>:
  401b94:	c7 07 48 89 e0 c3    	movl   $0xc3e08948,(%rdi)
  401b9a:	c3                   	retq   

0000000000401b9b <getval_333>:
  401b9b:	b8 89 ca 94 c0       	mov    $0xc094ca89,%eax
  401ba0:	c3                   	retq   

0000000000401ba1 <addval_367>:
  401ba1:	8d 87 89 ca 84 db    	lea    -0x247b3577(%rdi),%eax
  401ba7:	c3                   	retq   

0000000000401ba8 <setval_459>:
  401ba8:	c7 07 89 d6 90 c2    	movl   $0xc290d689,(%rdi)
  401bae:	c3                   	retq   

0000000000401baf <getval_401>:
  401baf:	b8 81 ca 38 c9       	mov    $0xc938ca81,%eax
  401bb4:	c3                   	retq   

0000000000401bb5 <getval_178>:
  401bb5:	b8 89 c1 90 90       	mov    $0x9090c189,%eax
  401bba:	c3                   	retq   

0000000000401bbb <addval_173>:
  401bbb:	8d 87 89 d6 a4 d2    	lea    -0x2d5b2977(%rdi),%eax
  401bc1:	c3                   	retq   

0000000000401bc2 <getval_423>:
  401bc2:	b8 48 89 e0 c7       	mov    $0xc7e08948,%eax
  401bc7:	c3                   	retq   

0000000000401bc8 <getval_270>:
  401bc8:	b8 48 89 e0 91       	mov    $0x91e08948,%eax
  401bcd:	c3                   	retq   

0000000000401bce <getval_308>:
  401bce:	b8 ad ef 89 d6       	mov    $0xd689efad,%eax
  401bd3:	c3                   	retq   

0000000000401bd4 <addval_440>:
  401bd4:	8d 87 89 d6 94 c3    	lea    -0x3c6b2977(%rdi),%eax
  401bda:	c3                   	retq   

0000000000401bdb <addval_230>:
  401bdb:	8d 87 81 d6 20 db    	lea    -0x24df297f(%rdi),%eax
  401be1:	c3                   	retq   

0000000000401be2 <setval_322>:
  401be2:	c7 07 c9 c1 90 c3    	movl   $0xc390c1c9,(%rdi)
  401be8:	c3                   	retq   

0000000000401be9 <getval_244>:
  401be9:	b8 e3 89 d6 90       	mov    $0x90d689e3,%eax
  401bee:	c3                   	retq   

0000000000401bef <addval_269>:
  401bef:	8d 87 09 d6 08 c9    	lea    -0x36f729f7(%rdi),%eax
  401bf5:	c3                   	retq   

0000000000401bf6 <getval_465>:
  401bf6:	b8 89 ca 90 c2       	mov    $0xc290ca89,%eax
  401bfb:	c3                   	retq   

0000000000401bfc <addval_101>:
  401bfc:	8d 87 89 c1 18 c0    	lea    -0x3fe73e77(%rdi),%eax
  401c02:	c3                   	retq   

0000000000401c03 <end_farm>:
  401c03:	b8 01 00 00 00       	mov    $0x1,%eax
  401c08:	c3                   	retq   

0000000000401c09 <save_char>:
  401c09:	8b 05 35 45 20 00    	mov    0x204535(%rip),%eax        # 606144 <gets_cnt>
  401c0f:	3d ff 03 00 00       	cmp    $0x3ff,%eax
  401c14:	7f 49                	jg     401c5f <save_char+0x56>
  401c16:	8d 14 40             	lea    (%rax,%rax,2),%edx
  401c19:	89 f9                	mov    %edi,%ecx
  401c1b:	c0 e9 04             	shr    $0x4,%cl
  401c1e:	83 e1 0f             	and    $0xf,%ecx
  401c21:	0f b6 b1 00 38 40 00 	movzbl 0x403800(%rcx),%esi
  401c28:	48 63 ca             	movslq %edx,%rcx
  401c2b:	40 88 b1 40 55 60 00 	mov    %sil,0x605540(%rcx)
  401c32:	8d 4a 01             	lea    0x1(%rdx),%ecx
  401c35:	83 e7 0f             	and    $0xf,%edi
  401c38:	0f b6 b7 00 38 40 00 	movzbl 0x403800(%rdi),%esi
  401c3f:	48 63 c9             	movslq %ecx,%rcx
  401c42:	40 88 b1 40 55 60 00 	mov    %sil,0x605540(%rcx)
  401c49:	83 c2 02             	add    $0x2,%edx
  401c4c:	48 63 d2             	movslq %edx,%rdx
  401c4f:	c6 82 40 55 60 00 20 	movb   $0x20,0x605540(%rdx)
  401c56:	83 c0 01             	add    $0x1,%eax
  401c59:	89 05 e5 44 20 00    	mov    %eax,0x2044e5(%rip)        # 606144 <gets_cnt>
  401c5f:	f3 c3                	repz retq 

0000000000401c61 <save_term>:
  401c61:	8b 05 dd 44 20 00    	mov    0x2044dd(%rip),%eax        # 606144 <gets_cnt>
  401c67:	8d 04 40             	lea    (%rax,%rax,2),%eax
  401c6a:	48 98                	cltq   
  401c6c:	c6 80 40 55 60 00 00 	movb   $0x0,0x605540(%rax)
  401c73:	c3                   	retq   

0000000000401c74 <check_fail>:
  401c74:	48 83 ec 08          	sub    $0x8,%rsp
  401c78:	0f be 15 c9 44 20 00 	movsbl 0x2044c9(%rip),%edx        # 606148 <target_prefix>
  401c7f:	41 b8 40 55 60 00    	mov    $0x605540,%r8d
  401c85:	8b 0d 8d 38 20 00    	mov    0x20388d(%rip),%ecx        # 605518 <check_level>
  401c8b:	be fb 34 40 00       	mov    $0x4034fb,%esi
  401c90:	bf 01 00 00 00       	mov    $0x1,%edi
  401c95:	b8 00 00 00 00       	mov    $0x0,%eax
  401c9a:	e8 81 f1 ff ff       	callq  400e20 <__printf_chk@plt>
  401c9f:	bf 01 00 00 00       	mov    $0x1,%edi
  401ca4:	e8 c7 f1 ff ff       	callq  400e70 <exit@plt>

0000000000401ca9 <Gets>:
  401ca9:	41 54                	push   %r12
  401cab:	55                   	push   %rbp
  401cac:	53                   	push   %rbx
  401cad:	49 89 fc             	mov    %rdi,%r12
  401cb0:	c7 05 8a 44 20 00 00 	movl   $0x0,0x20448a(%rip)        # 606144 <gets_cnt>
  401cb7:	00 00 00 
  401cba:	48 89 fb             	mov    %rdi,%rbx
  401cbd:	eb 11                	jmp    401cd0 <Gets+0x27>
  401cbf:	48 8d 6b 01          	lea    0x1(%rbx),%rbp
  401cc3:	88 03                	mov    %al,(%rbx)
  401cc5:	0f b6 f8             	movzbl %al,%edi
  401cc8:	e8 3c ff ff ff       	callq  401c09 <save_char>
  401ccd:	48 89 eb             	mov    %rbp,%rbx
  401cd0:	48 8b 3d 39 38 20 00 	mov    0x203839(%rip),%rdi        # 605510 <infile>
  401cd7:	e8 14 f1 ff ff       	callq  400df0 <_IO_getc@plt>
  401cdc:	83 f8 ff             	cmp    $0xffffffff,%eax
  401cdf:	74 05                	je     401ce6 <Gets+0x3d>
  401ce1:	83 f8 0a             	cmp    $0xa,%eax
  401ce4:	75 d9                	jne    401cbf <Gets+0x16>
  401ce6:	c6 03 00             	movb   $0x0,(%rbx)
  401ce9:	b8 00 00 00 00       	mov    $0x0,%eax
  401cee:	e8 6e ff ff ff       	callq  401c61 <save_term>
  401cf3:	4c 89 e0             	mov    %r12,%rax
  401cf6:	5b                   	pop    %rbx
  401cf7:	5d                   	pop    %rbp
  401cf8:	41 5c                	pop    %r12
  401cfa:	c3                   	retq   

0000000000401cfb <notify_server>:
  401cfb:	53                   	push   %rbx
  401cfc:	48 81 ec 10 40 00 00 	sub    $0x4010,%rsp
  401d03:	64 48 8b 04 25 28 00 	mov    %fs:0x28,%rax
  401d0a:	00 00 
  401d0c:	48 89 84 24 08 40 00 	mov    %rax,0x4008(%rsp)
  401d13:	00 
  401d14:	31 c0                	xor    %eax,%eax
  401d16:	83 3d 0b 38 20 00 00 	cmpl   $0x0,0x20380b(%rip)        # 605528 <is_checker>
  401d1d:	0f 85 aa 01 00 00    	jne    401ecd <notify_server+0x1d2>
  401d23:	89 fb                	mov    %edi,%ebx
  401d25:	8b 05 19 44 20 00    	mov    0x204419(%rip),%eax        # 606144 <gets_cnt>
  401d2b:	83 c0 64             	add    $0x64,%eax
  401d2e:	3d 00 20 00 00       	cmp    $0x2000,%eax
  401d33:	7e 1e                	jle    401d53 <notify_server+0x58>
  401d35:	be 30 36 40 00       	mov    $0x403630,%esi
  401d3a:	bf 01 00 00 00       	mov    $0x1,%edi
  401d3f:	b8 00 00 00 00       	mov    $0x0,%eax
  401d44:	e8 d7 f0 ff ff       	callq  400e20 <__printf_chk@plt>
  401d49:	bf 01 00 00 00       	mov    $0x1,%edi
  401d4e:	e8 1d f1 ff ff       	callq  400e70 <exit@plt>
  401d53:	0f be 05 ee 43 20 00 	movsbl 0x2043ee(%rip),%eax        # 606148 <target_prefix>
  401d5a:	83 3d 47 37 20 00 00 	cmpl   $0x0,0x203747(%rip)        # 6054a8 <notify>
  401d61:	74 08                	je     401d6b <notify_server+0x70>
  401d63:	8b 15 b7 37 20 00    	mov    0x2037b7(%rip),%edx        # 605520 <authkey>
  401d69:	eb 05                	jmp    401d70 <notify_server+0x75>
  401d6b:	ba ff ff ff ff       	mov    $0xffffffff,%edx
  401d70:	85 db                	test   %ebx,%ebx
  401d72:	74 08                	je     401d7c <notify_server+0x81>
  401d74:	41 b9 11 35 40 00    	mov    $0x403511,%r9d
  401d7a:	eb 06                	jmp    401d82 <notify_server+0x87>
  401d7c:	41 b9 16 35 40 00    	mov    $0x403516,%r9d
  401d82:	68 40 55 60 00       	pushq  $0x605540
  401d87:	56                   	push   %rsi
  401d88:	50                   	push   %rax
  401d89:	52                   	push   %rdx
  401d8a:	44 8b 05 d7 33 20 00 	mov    0x2033d7(%rip),%r8d        # 605168 <target_id>
  401d91:	b9 1b 35 40 00       	mov    $0x40351b,%ecx
  401d96:	ba 00 20 00 00       	mov    $0x2000,%edx
  401d9b:	be 01 00 00 00       	mov    $0x1,%esi
  401da0:	48 8d 7c 24 20       	lea    0x20(%rsp),%rdi
  401da5:	b8 00 00 00 00       	mov    $0x0,%eax
  401daa:	e8 f1 f0 ff ff       	callq  400ea0 <__sprintf_chk@plt>
  401daf:	48 83 c4 20          	add    $0x20,%rsp
  401db3:	83 3d ee 36 20 00 00 	cmpl   $0x0,0x2036ee(%rip)        # 6054a8 <notify>
  401dba:	0f 84 81 00 00 00    	je     401e41 <notify_server+0x146>
  401dc0:	4c 8d 8c 24 00 20 00 	lea    0x2000(%rsp),%r9
  401dc7:	00 
  401dc8:	41 b8 00 00 00 00    	mov    $0x0,%r8d
  401dce:	48 89 e1             	mov    %rsp,%rcx
  401dd1:	48 8b 15 98 33 20 00 	mov    0x203398(%rip),%rdx        # 605170 <lab>
  401dd8:	48 8b 35 99 33 20 00 	mov    0x203399(%rip),%rsi        # 605178 <course>
  401ddf:	48 8b 3d 7a 33 20 00 	mov    0x20337a(%rip),%rdi        # 605160 <user_id>
  401de6:	e8 0e 11 00 00       	callq  402ef9 <driver_post>
  401deb:	85 c0                	test   %eax,%eax
  401ded:	79 26                	jns    401e15 <notify_server+0x11a>
  401def:	48 8d 94 24 00 20 00 	lea    0x2000(%rsp),%rdx
  401df6:	00 
  401df7:	be 37 35 40 00       	mov    $0x403537,%esi
  401dfc:	bf 01 00 00 00       	mov    $0x1,%edi
  401e01:	b8 00 00 00 00       	mov    $0x0,%eax
  401e06:	e8 15 f0 ff ff       	callq  400e20 <__printf_chk@plt>
  401e0b:	bf 01 00 00 00       	mov    $0x1,%edi
  401e10:	e8 5b f0 ff ff       	callq  400e70 <exit@plt>
  401e15:	85 db                	test   %ebx,%ebx
  401e17:	74 19                	je     401e32 <notify_server+0x137>
  401e19:	bf 60 36 40 00       	mov    $0x403660,%edi
  401e1e:	e8 cd ee ff ff       	callq  400cf0 <puts@plt>
  401e23:	bf 43 35 40 00       	mov    $0x403543,%edi
  401e28:	e8 c3 ee ff ff       	callq  400cf0 <puts@plt>
  401e2d:	e9 9b 00 00 00       	jmpq   401ecd <notify_server+0x1d2>
  401e32:	bf 4d 35 40 00       	mov    $0x40354d,%edi
  401e37:	e8 b4 ee ff ff       	callq  400cf0 <puts@plt>
  401e3c:	e9 8c 00 00 00       	jmpq   401ecd <notify_server+0x1d2>
  401e41:	85 db                	test   %ebx,%ebx
  401e43:	74 07                	je     401e4c <notify_server+0x151>
  401e45:	ba 11 35 40 00       	mov    $0x403511,%edx
  401e4a:	eb 05                	jmp    401e51 <notify_server+0x156>
  401e4c:	ba 16 35 40 00       	mov    $0x403516,%edx
  401e51:	be 98 36 40 00       	mov    $0x403698,%esi
  401e56:	bf 01 00 00 00       	mov    $0x1,%edi
  401e5b:	b8 00 00 00 00       	mov    $0x0,%eax
  401e60:	e8 bb ef ff ff       	callq  400e20 <__printf_chk@plt>
  401e65:	48 8b 15 f4 32 20 00 	mov    0x2032f4(%rip),%rdx        # 605160 <user_id>
  401e6c:	be 54 35 40 00       	mov    $0x403554,%esi
  401e71:	bf 01 00 00 00       	mov    $0x1,%edi
  401e76:	b8 00 00 00 00       	mov    $0x0,%eax
  401e7b:	e8 a0 ef ff ff       	callq  400e20 <__printf_chk@plt>
  401e80:	48 8b 15 f1 32 20 00 	mov    0x2032f1(%rip),%rdx        # 605178 <course>
  401e87:	be 61 35 40 00       	mov    $0x403561,%esi
  401e8c:	bf 01 00 00 00       	mov    $0x1,%edi
  401e91:	b8 00 00 00 00       	mov    $0x0,%eax
  401e96:	e8 85 ef ff ff       	callq  400e20 <__printf_chk@plt>
  401e9b:	48 8b 15 ce 32 20 00 	mov    0x2032ce(%rip),%rdx        # 605170 <lab>
  401ea2:	be 6d 35 40 00       	mov    $0x40356d,%esi
  401ea7:	bf 01 00 00 00       	mov    $0x1,%edi
  401eac:	b8 00 00 00 00       	mov    $0x0,%eax
  401eb1:	e8 6a ef ff ff       	callq  400e20 <__printf_chk@plt>
  401eb6:	48 89 e2             	mov    %rsp,%rdx
  401eb9:	be 76 35 40 00       	mov    $0x403576,%esi
  401ebe:	bf 01 00 00 00       	mov    $0x1,%edi
  401ec3:	b8 00 00 00 00       	mov    $0x0,%eax
  401ec8:	e8 53 ef ff ff       	callq  400e20 <__printf_chk@plt>
  401ecd:	48 8b 84 24 08 40 00 	mov    0x4008(%rsp),%rax
  401ed4:	00 
  401ed5:	64 48 33 04 25 28 00 	xor    %fs:0x28,%rax
  401edc:	00 00 
  401ede:	74 05                	je     401ee5 <notify_server+0x1ea>
  401ee0:	e8 2b ee ff ff       	callq  400d10 <__stack_chk_fail@plt>
  401ee5:	48 81 c4 10 40 00 00 	add    $0x4010,%rsp
  401eec:	5b                   	pop    %rbx
  401eed:	c3                   	retq   

0000000000401eee <validate>:
  401eee:	53                   	push   %rbx
  401eef:	89 fb                	mov    %edi,%ebx
  401ef1:	83 3d 30 36 20 00 00 	cmpl   $0x0,0x203630(%rip)        # 605528 <is_checker>
  401ef8:	74 6b                	je     401f65 <validate+0x77>
  401efa:	39 3d 1c 36 20 00    	cmp    %edi,0x20361c(%rip)        # 60551c <vlevel>
  401f00:	74 14                	je     401f16 <validate+0x28>
  401f02:	bf 82 35 40 00       	mov    $0x403582,%edi
  401f07:	e8 e4 ed ff ff       	callq  400cf0 <puts@plt>
  401f0c:	b8 00 00 00 00       	mov    $0x0,%eax
  401f11:	e8 5e fd ff ff       	callq  401c74 <check_fail>
  401f16:	8b 15 fc 35 20 00    	mov    0x2035fc(%rip),%edx        # 605518 <check_level>
  401f1c:	39 d7                	cmp    %edx,%edi
  401f1e:	74 20                	je     401f40 <validate+0x52>
  401f20:	89 f9                	mov    %edi,%ecx
  401f22:	be c0 36 40 00       	mov    $0x4036c0,%esi
  401f27:	bf 01 00 00 00       	mov    $0x1,%edi
  401f2c:	b8 00 00 00 00       	mov    $0x0,%eax
  401f31:	e8 ea ee ff ff       	callq  400e20 <__printf_chk@plt>
  401f36:	b8 00 00 00 00       	mov    $0x0,%eax
  401f3b:	e8 34 fd ff ff       	callq  401c74 <check_fail>
  401f40:	0f be 15 01 42 20 00 	movsbl 0x204201(%rip),%edx        # 606148 <target_prefix>
  401f47:	41 b8 40 55 60 00    	mov    $0x605540,%r8d
  401f4d:	89 f9                	mov    %edi,%ecx
  401f4f:	be a0 35 40 00       	mov    $0x4035a0,%esi
  401f54:	bf 01 00 00 00       	mov    $0x1,%edi
  401f59:	b8 00 00 00 00       	mov    $0x0,%eax
  401f5e:	e8 bd ee ff ff       	callq  400e20 <__printf_chk@plt>
  401f63:	eb 49                	jmp    401fae <validate+0xc0>
  401f65:	3b 3d b1 35 20 00    	cmp    0x2035b1(%rip),%edi        # 60551c <vlevel>
  401f6b:	74 18                	je     401f85 <validate+0x97>
  401f6d:	bf 82 35 40 00       	mov    $0x403582,%edi
  401f72:	e8 79 ed ff ff       	callq  400cf0 <puts@plt>
  401f77:	89 de                	mov    %ebx,%esi
  401f79:	bf 00 00 00 00       	mov    $0x0,%edi
  401f7e:	e8 78 fd ff ff       	callq  401cfb <notify_server>
  401f83:	eb 29                	jmp    401fae <validate+0xc0>
  401f85:	0f be 0d bc 41 20 00 	movsbl 0x2041bc(%rip),%ecx        # 606148 <target_prefix>
  401f8c:	89 fa                	mov    %edi,%edx
  401f8e:	be e8 36 40 00       	mov    $0x4036e8,%esi
  401f93:	bf 01 00 00 00       	mov    $0x1,%edi
  401f98:	b8 00 00 00 00       	mov    $0x0,%eax
  401f9d:	e8 7e ee ff ff       	callq  400e20 <__printf_chk@plt>
  401fa2:	89 de                	mov    %ebx,%esi
  401fa4:	bf 01 00 00 00       	mov    $0x1,%edi
  401fa9:	e8 4d fd ff ff       	callq  401cfb <notify_server>
  401fae:	5b                   	pop    %rbx
  401faf:	c3                   	retq   

0000000000401fb0 <fail>:
  401fb0:	48 83 ec 08          	sub    $0x8,%rsp
  401fb4:	83 3d 6d 35 20 00 00 	cmpl   $0x0,0x20356d(%rip)        # 605528 <is_checker>
  401fbb:	74 0a                	je     401fc7 <fail+0x17>
  401fbd:	b8 00 00 00 00       	mov    $0x0,%eax
  401fc2:	e8 ad fc ff ff       	callq  401c74 <check_fail>
  401fc7:	89 fe                	mov    %edi,%esi
  401fc9:	bf 00 00 00 00       	mov    $0x0,%edi
  401fce:	e8 28 fd ff ff       	callq  401cfb <notify_server>
  401fd3:	48 83 c4 08          	add    $0x8,%rsp
  401fd7:	c3                   	retq   

0000000000401fd8 <bushandler>:
  401fd8:	48 83 ec 08          	sub    $0x8,%rsp
  401fdc:	83 3d 45 35 20 00 00 	cmpl   $0x0,0x203545(%rip)        # 605528 <is_checker>
  401fe3:	74 14                	je     401ff9 <bushandler+0x21>
  401fe5:	bf b5 35 40 00       	mov    $0x4035b5,%edi
  401fea:	e8 01 ed ff ff       	callq  400cf0 <puts@plt>
  401fef:	b8 00 00 00 00       	mov    $0x0,%eax
  401ff4:	e8 7b fc ff ff       	callq  401c74 <check_fail>
  401ff9:	bf 20 37 40 00       	mov    $0x403720,%edi
  401ffe:	e8 ed ec ff ff       	callq  400cf0 <puts@plt>
  402003:	bf bf 35 40 00       	mov    $0x4035bf,%edi
  402008:	e8 e3 ec ff ff       	callq  400cf0 <puts@plt>
  40200d:	be 00 00 00 00       	mov    $0x0,%esi
  402012:	bf 00 00 00 00       	mov    $0x0,%edi
  402017:	e8 df fc ff ff       	callq  401cfb <notify_server>
  40201c:	bf 01 00 00 00       	mov    $0x1,%edi
  402021:	e8 4a ee ff ff       	callq  400e70 <exit@plt>

0000000000402026 <seghandler>:
  402026:	48 83 ec 08          	sub    $0x8,%rsp
  40202a:	83 3d f7 34 20 00 00 	cmpl   $0x0,0x2034f7(%rip)        # 605528 <is_checker>
  402031:	74 14                	je     402047 <seghandler+0x21>
  402033:	bf d5 35 40 00       	mov    $0x4035d5,%edi
  402038:	e8 b3 ec ff ff       	callq  400cf0 <puts@plt>
  40203d:	b8 00 00 00 00       	mov    $0x0,%eax
  402042:	e8 2d fc ff ff       	callq  401c74 <check_fail>
  402047:	bf 40 37 40 00       	mov    $0x403740,%edi
  40204c:	e8 9f ec ff ff       	callq  400cf0 <puts@plt>
  402051:	bf bf 35 40 00       	mov    $0x4035bf,%edi
  402056:	e8 95 ec ff ff       	callq  400cf0 <puts@plt>
  40205b:	be 00 00 00 00       	mov    $0x0,%esi
  402060:	bf 00 00 00 00       	mov    $0x0,%edi
  402065:	e8 91 fc ff ff       	callq  401cfb <notify_server>
  40206a:	bf 01 00 00 00       	mov    $0x1,%edi
  40206f:	e8 fc ed ff ff       	callq  400e70 <exit@plt>

0000000000402074 <illegalhandler>:
  402074:	48 83 ec 08          	sub    $0x8,%rsp
  402078:	83 3d a9 34 20 00 00 	cmpl   $0x0,0x2034a9(%rip)        # 605528 <is_checker>
  40207f:	74 14                	je     402095 <illegalhandler+0x21>
  402081:	bf e8 35 40 00       	mov    $0x4035e8,%edi
  402086:	e8 65 ec ff ff       	callq  400cf0 <puts@plt>
  40208b:	b8 00 00 00 00       	mov    $0x0,%eax
  402090:	e8 df fb ff ff       	callq  401c74 <check_fail>
  402095:	bf 68 37 40 00       	mov    $0x403768,%edi
  40209a:	e8 51 ec ff ff       	callq  400cf0 <puts@plt>
  40209f:	bf bf 35 40 00       	mov    $0x4035bf,%edi
  4020a4:	e8 47 ec ff ff       	callq  400cf0 <puts@plt>
  4020a9:	be 00 00 00 00       	mov    $0x0,%esi
  4020ae:	bf 00 00 00 00       	mov    $0x0,%edi
  4020b3:	e8 43 fc ff ff       	callq  401cfb <notify_server>
  4020b8:	bf 01 00 00 00       	mov    $0x1,%edi
  4020bd:	e8 ae ed ff ff       	callq  400e70 <exit@plt>

00000000004020c2 <sigalrmhandler>:
  4020c2:	48 83 ec 08          	sub    $0x8,%rsp
  4020c6:	83 3d 5b 34 20 00 00 	cmpl   $0x0,0x20345b(%rip)        # 605528 <is_checker>
  4020cd:	74 14                	je     4020e3 <sigalrmhandler+0x21>
  4020cf:	bf fc 35 40 00       	mov    $0x4035fc,%edi
  4020d4:	e8 17 ec ff ff       	callq  400cf0 <puts@plt>
  4020d9:	b8 00 00 00 00       	mov    $0x0,%eax
  4020de:	e8 91 fb ff ff       	callq  401c74 <check_fail>
  4020e3:	ba 05 00 00 00       	mov    $0x5,%edx
  4020e8:	be 98 37 40 00       	mov    $0x403798,%esi
  4020ed:	bf 01 00 00 00       	mov    $0x1,%edi
  4020f2:	b8 00 00 00 00       	mov    $0x0,%eax
  4020f7:	e8 24 ed ff ff       	callq  400e20 <__printf_chk@plt>
  4020fc:	be 00 00 00 00       	mov    $0x0,%esi
  402101:	bf 00 00 00 00       	mov    $0x0,%edi
  402106:	e8 f0 fb ff ff       	callq  401cfb <notify_server>
  40210b:	bf 01 00 00 00       	mov    $0x1,%edi
  402110:	e8 5b ed ff ff       	callq  400e70 <exit@plt>

0000000000402115 <launch>:
  402115:	55                   	push   %rbp
  402116:	48 89 e5             	mov    %rsp,%rbp
  402119:	48 83 ec 10          	sub    $0x10,%rsp
  40211d:	48 89 fa             	mov    %rdi,%rdx
  402120:	64 48 8b 04 25 28 00 	mov    %fs:0x28,%rax
  402127:	00 00 
  402129:	48 89 45 f8          	mov    %rax,-0x8(%rbp)
  40212d:	31 c0                	xor    %eax,%eax
  40212f:	48 8d 47 1e          	lea    0x1e(%rdi),%rax
  402133:	48 83 e0 f0          	and    $0xfffffffffffffff0,%rax
  402137:	48 29 c4             	sub    %rax,%rsp
  40213a:	48 8d 7c 24 0f       	lea    0xf(%rsp),%rdi
  40213f:	48 83 e7 f0          	and    $0xfffffffffffffff0,%rdi
  402143:	be f4 00 00 00       	mov    $0xf4,%esi
  402148:	e8 e3 eb ff ff       	callq  400d30 <memset@plt>
  40214d:	48 8b 05 6c 33 20 00 	mov    0x20336c(%rip),%rax        # 6054c0 <stdin@@GLIBC_2.2.5>
  402154:	48 39 05 b5 33 20 00 	cmp    %rax,0x2033b5(%rip)        # 605510 <infile>
  40215b:	75 14                	jne    402171 <launch+0x5c>
  40215d:	be 04 36 40 00       	mov    $0x403604,%esi
  402162:	bf 01 00 00 00       	mov    $0x1,%edi
  402167:	b8 00 00 00 00       	mov    $0x0,%eax
  40216c:	e8 af ec ff ff       	callq  400e20 <__printf_chk@plt>
  402171:	c7 05 a1 33 20 00 00 	movl   $0x0,0x2033a1(%rip)        # 60551c <vlevel>
  402178:	00 00 00 
  40217b:	b8 00 00 00 00       	mov    $0x0,%eax
  402180:	e8 3b f9 ff ff       	callq  401ac0 <test>
  402185:	83 3d 9c 33 20 00 00 	cmpl   $0x0,0x20339c(%rip)        # 605528 <is_checker>
  40218c:	74 14                	je     4021a2 <launch+0x8d>
  40218e:	bf 11 36 40 00       	mov    $0x403611,%edi
  402193:	e8 58 eb ff ff       	callq  400cf0 <puts@plt>
  402198:	b8 00 00 00 00       	mov    $0x0,%eax
  40219d:	e8 d2 fa ff ff       	callq  401c74 <check_fail>
  4021a2:	bf 1c 36 40 00       	mov    $0x40361c,%edi
  4021a7:	e8 44 eb ff ff       	callq  400cf0 <puts@plt>
  4021ac:	48 8b 45 f8          	mov    -0x8(%rbp),%rax
  4021b0:	64 48 33 04 25 28 00 	xor    %fs:0x28,%rax
  4021b7:	00 00 
  4021b9:	74 05                	je     4021c0 <launch+0xab>
  4021bb:	e8 50 eb ff ff       	callq  400d10 <__stack_chk_fail@plt>
  4021c0:	c9                   	leaveq 
  4021c1:	c3                   	retq   

00000000004021c2 <stable_launch>:
  4021c2:	53                   	push   %rbx
  4021c3:	48 89 3d 3e 33 20 00 	mov    %rdi,0x20333e(%rip)        # 605508 <global_offset>
  4021ca:	41 b9 00 00 00 00    	mov    $0x0,%r9d
  4021d0:	41 b8 00 00 00 00    	mov    $0x0,%r8d
  4021d6:	b9 32 01 00 00       	mov    $0x132,%ecx
  4021db:	ba 07 00 00 00       	mov    $0x7,%edx
  4021e0:	be 00 00 10 00       	mov    $0x100000,%esi
  4021e5:	bf 00 60 58 55       	mov    $0x55586000,%edi
  4021ea:	e8 31 eb ff ff       	callq  400d20 <mmap@plt>
  4021ef:	48 89 c3             	mov    %rax,%rbx
  4021f2:	48 3d 00 60 58 55    	cmp    $0x55586000,%rax
  4021f8:	74 37                	je     402231 <stable_launch+0x6f>
  4021fa:	be 00 00 10 00       	mov    $0x100000,%esi
  4021ff:	48 89 c7             	mov    %rax,%rdi
  402202:	e8 09 ec ff ff       	callq  400e10 <munmap@plt>
  402207:	b9 00 60 58 55       	mov    $0x55586000,%ecx
  40220c:	ba d0 37 40 00       	mov    $0x4037d0,%edx
  402211:	be 01 00 00 00       	mov    $0x1,%esi
  402216:	48 8b 3d c3 32 20 00 	mov    0x2032c3(%rip),%rdi        # 6054e0 <stderr@@GLIBC_2.2.5>
  40221d:	b8 00 00 00 00       	mov    $0x0,%eax
  402222:	e8 69 ec ff ff       	callq  400e90 <__fprintf_chk@plt>
  402227:	bf 01 00 00 00       	mov    $0x1,%edi
  40222c:	e8 3f ec ff ff       	callq  400e70 <exit@plt>
  402231:	48 8d 90 f8 ff 0f 00 	lea    0xffff8(%rax),%rdx
  402238:	48 89 15 11 3f 20 00 	mov    %rdx,0x203f11(%rip)        # 606150 <stack_top>
  40223f:	48 89 e0             	mov    %rsp,%rax
  402242:	48 89 d4             	mov    %rdx,%rsp
  402245:	48 89 c2             	mov    %rax,%rdx
  402248:	48 89 15 b1 32 20 00 	mov    %rdx,0x2032b1(%rip)        # 605500 <global_save_stack>
  40224f:	48 8b 3d b2 32 20 00 	mov    0x2032b2(%rip),%rdi        # 605508 <global_offset>
  402256:	e8 ba fe ff ff       	callq  402115 <launch>
  40225b:	48 8b 05 9e 32 20 00 	mov    0x20329e(%rip),%rax        # 605500 <global_save_stack>
  402262:	48 89 c4             	mov    %rax,%rsp
  402265:	be 00 00 10 00       	mov    $0x100000,%esi
  40226a:	48 89 df             	mov    %rbx,%rdi
  40226d:	e8 9e eb ff ff       	callq  400e10 <munmap@plt>
  402272:	5b                   	pop    %rbx
  402273:	c3                   	retq   

0000000000402274 <rio_readinitb>:
  402274:	89 37                	mov    %esi,(%rdi)
  402276:	c7 47 04 00 00 00 00 	movl   $0x0,0x4(%rdi)
  40227d:	48 8d 47 10          	lea    0x10(%rdi),%rax
  402281:	48 89 47 08          	mov    %rax,0x8(%rdi)
  402285:	c3                   	retq   

0000000000402286 <sigalrm_handler>:
  402286:	48 83 ec 08          	sub    $0x8,%rsp
  40228a:	b9 00 00 00 00       	mov    $0x0,%ecx
  40228f:	ba 10 38 40 00       	mov    $0x403810,%edx
  402294:	be 01 00 00 00       	mov    $0x1,%esi
  402299:	48 8b 3d 40 32 20 00 	mov    0x203240(%rip),%rdi        # 6054e0 <stderr@@GLIBC_2.2.5>
  4022a0:	b8 00 00 00 00       	mov    $0x0,%eax
  4022a5:	e8 e6 eb ff ff       	callq  400e90 <__fprintf_chk@plt>
  4022aa:	bf 01 00 00 00       	mov    $0x1,%edi
  4022af:	e8 bc eb ff ff       	callq  400e70 <exit@plt>

00000000004022b4 <rio_writen>:
  4022b4:	41 55                	push   %r13
  4022b6:	41 54                	push   %r12
  4022b8:	55                   	push   %rbp
  4022b9:	53                   	push   %rbx
  4022ba:	48 83 ec 08          	sub    $0x8,%rsp
  4022be:	41 89 fc             	mov    %edi,%r12d
  4022c1:	48 89 f5             	mov    %rsi,%rbp
  4022c4:	49 89 d5             	mov    %rdx,%r13
  4022c7:	48 89 d3             	mov    %rdx,%rbx
  4022ca:	eb 28                	jmp    4022f4 <rio_writen+0x40>
  4022cc:	48 89 da             	mov    %rbx,%rdx
  4022cf:	48 89 ee             	mov    %rbp,%rsi
  4022d2:	44 89 e7             	mov    %r12d,%edi
  4022d5:	e8 26 ea ff ff       	callq  400d00 <write@plt>
  4022da:	48 85 c0             	test   %rax,%rax
  4022dd:	7f 0f                	jg     4022ee <rio_writen+0x3a>
  4022df:	e8 cc e9 ff ff       	callq  400cb0 <__errno_location@plt>
  4022e4:	83 38 04             	cmpl   $0x4,(%rax)
  4022e7:	75 15                	jne    4022fe <rio_writen+0x4a>
  4022e9:	b8 00 00 00 00       	mov    $0x0,%eax
  4022ee:	48 29 c3             	sub    %rax,%rbx
  4022f1:	48 01 c5             	add    %rax,%rbp
  4022f4:	48 85 db             	test   %rbx,%rbx
  4022f7:	75 d3                	jne    4022cc <rio_writen+0x18>
  4022f9:	4c 89 e8             	mov    %r13,%rax
  4022fc:	eb 07                	jmp    402305 <rio_writen+0x51>
  4022fe:	48 c7 c0 ff ff ff ff 	mov    $0xffffffffffffffff,%rax
  402305:	48 83 c4 08          	add    $0x8,%rsp
  402309:	5b                   	pop    %rbx
  40230a:	5d                   	pop    %rbp
  40230b:	41 5c                	pop    %r12
  40230d:	41 5d                	pop    %r13
  40230f:	c3                   	retq   

0000000000402310 <rio_read>:
  402310:	41 55                	push   %r13
  402312:	41 54                	push   %r12
  402314:	55                   	push   %rbp
  402315:	53                   	push   %rbx
  402316:	48 83 ec 08          	sub    $0x8,%rsp
  40231a:	48 89 fb             	mov    %rdi,%rbx
  40231d:	49 89 f5             	mov    %rsi,%r13
  402320:	49 89 d4             	mov    %rdx,%r12
  402323:	eb 2e                	jmp    402353 <rio_read+0x43>
  402325:	48 8d 6b 10          	lea    0x10(%rbx),%rbp
  402329:	8b 3b                	mov    (%rbx),%edi
  40232b:	ba 00 20 00 00       	mov    $0x2000,%edx
  402330:	48 89 ee             	mov    %rbp,%rsi
  402333:	e8 28 ea ff ff       	callq  400d60 <read@plt>
  402338:	89 43 04             	mov    %eax,0x4(%rbx)
  40233b:	85 c0                	test   %eax,%eax
  40233d:	79 0c                	jns    40234b <rio_read+0x3b>
  40233f:	e8 6c e9 ff ff       	callq  400cb0 <__errno_location@plt>
  402344:	83 38 04             	cmpl   $0x4,(%rax)
  402347:	74 0a                	je     402353 <rio_read+0x43>
  402349:	eb 37                	jmp    402382 <rio_read+0x72>
  40234b:	85 c0                	test   %eax,%eax
  40234d:	74 3c                	je     40238b <rio_read+0x7b>
  40234f:	48 89 6b 08          	mov    %rbp,0x8(%rbx)
  402353:	8b 6b 04             	mov    0x4(%rbx),%ebp
  402356:	85 ed                	test   %ebp,%ebp
  402358:	7e cb                	jle    402325 <rio_read+0x15>
  40235a:	89 e8                	mov    %ebp,%eax
  40235c:	49 39 c4             	cmp    %rax,%r12
  40235f:	77 03                	ja     402364 <rio_read+0x54>
  402361:	44 89 e5             	mov    %r12d,%ebp
  402364:	4c 63 e5             	movslq %ebp,%r12
  402367:	48 8b 73 08          	mov    0x8(%rbx),%rsi
  40236b:	4c 89 e2             	mov    %r12,%rdx
  40236e:	4c 89 ef             	mov    %r13,%rdi
  402371:	e8 4a ea ff ff       	callq  400dc0 <memcpy@plt>
  402376:	4c 01 63 08          	add    %r12,0x8(%rbx)
  40237a:	29 6b 04             	sub    %ebp,0x4(%rbx)
  40237d:	4c 89 e0             	mov    %r12,%rax
  402380:	eb 0e                	jmp    402390 <rio_read+0x80>
  402382:	48 c7 c0 ff ff ff ff 	mov    $0xffffffffffffffff,%rax
  402389:	eb 05                	jmp    402390 <rio_read+0x80>
  40238b:	b8 00 00 00 00       	mov    $0x0,%eax
  402390:	48 83 c4 08          	add    $0x8,%rsp
  402394:	5b                   	pop    %rbx
  402395:	5d                   	pop    %rbp
  402396:	41 5c                	pop    %r12
  402398:	41 5d                	pop    %r13
  40239a:	c3                   	retq   

000000000040239b <rio_readlineb>:
  40239b:	41 55                	push   %r13
  40239d:	41 54                	push   %r12
  40239f:	55                   	push   %rbp
  4023a0:	53                   	push   %rbx
  4023a1:	48 83 ec 18          	sub    $0x18,%rsp
  4023a5:	49 89 fd             	mov    %rdi,%r13
  4023a8:	48 89 f5             	mov    %rsi,%rbp
  4023ab:	49 89 d4             	mov    %rdx,%r12
  4023ae:	64 48 8b 04 25 28 00 	mov    %fs:0x28,%rax
  4023b5:	00 00 
  4023b7:	48 89 44 24 08       	mov    %rax,0x8(%rsp)
  4023bc:	31 c0                	xor    %eax,%eax
  4023be:	bb 01 00 00 00       	mov    $0x1,%ebx
  4023c3:	eb 3f                	jmp    402404 <rio_readlineb+0x69>
  4023c5:	ba 01 00 00 00       	mov    $0x1,%edx
  4023ca:	48 8d 74 24 07       	lea    0x7(%rsp),%rsi
  4023cf:	4c 89 ef             	mov    %r13,%rdi
  4023d2:	e8 39 ff ff ff       	callq  402310 <rio_read>
  4023d7:	83 f8 01             	cmp    $0x1,%eax
  4023da:	75 15                	jne    4023f1 <rio_readlineb+0x56>
  4023dc:	48 8d 45 01          	lea    0x1(%rbp),%rax
  4023e0:	0f b6 54 24 07       	movzbl 0x7(%rsp),%edx
  4023e5:	88 55 00             	mov    %dl,0x0(%rbp)
  4023e8:	80 7c 24 07 0a       	cmpb   $0xa,0x7(%rsp)
  4023ed:	75 0e                	jne    4023fd <rio_readlineb+0x62>
  4023ef:	eb 1a                	jmp    40240b <rio_readlineb+0x70>
  4023f1:	85 c0                	test   %eax,%eax
  4023f3:	75 22                	jne    402417 <rio_readlineb+0x7c>
  4023f5:	48 83 fb 01          	cmp    $0x1,%rbx
  4023f9:	75 13                	jne    40240e <rio_readlineb+0x73>
  4023fb:	eb 23                	jmp    402420 <rio_readlineb+0x85>
  4023fd:	48 83 c3 01          	add    $0x1,%rbx
  402401:	48 89 c5             	mov    %rax,%rbp
  402404:	4c 39 e3             	cmp    %r12,%rbx
  402407:	72 bc                	jb     4023c5 <rio_readlineb+0x2a>
  402409:	eb 03                	jmp    40240e <rio_readlineb+0x73>
  40240b:	48 89 c5             	mov    %rax,%rbp
  40240e:	c6 45 00 00          	movb   $0x0,0x0(%rbp)
  402412:	48 89 d8             	mov    %rbx,%rax
  402415:	eb 0e                	jmp    402425 <rio_readlineb+0x8a>
  402417:	48 c7 c0 ff ff ff ff 	mov    $0xffffffffffffffff,%rax
  40241e:	eb 05                	jmp    402425 <rio_readlineb+0x8a>
  402420:	b8 00 00 00 00       	mov    $0x0,%eax
  402425:	48 8b 4c 24 08       	mov    0x8(%rsp),%rcx
  40242a:	64 48 33 0c 25 28 00 	xor    %fs:0x28,%rcx
  402431:	00 00 
  402433:	74 05                	je     40243a <rio_readlineb+0x9f>
  402435:	e8 d6 e8 ff ff       	callq  400d10 <__stack_chk_fail@plt>
  40243a:	48 83 c4 18          	add    $0x18,%rsp
  40243e:	5b                   	pop    %rbx
  40243f:	5d                   	pop    %rbp
  402440:	41 5c                	pop    %r12
  402442:	41 5d                	pop    %r13
  402444:	c3                   	retq   

0000000000402445 <urlencode>:
  402445:	41 54                	push   %r12
  402447:	55                   	push   %rbp
  402448:	53                   	push   %rbx
  402449:	48 83 ec 10          	sub    $0x10,%rsp
  40244d:	48 89 fb             	mov    %rdi,%rbx
  402450:	48 89 f5             	mov    %rsi,%rbp
  402453:	64 48 8b 04 25 28 00 	mov    %fs:0x28,%rax
  40245a:	00 00 
  40245c:	48 89 44 24 08       	mov    %rax,0x8(%rsp)
  402461:	31 c0                	xor    %eax,%eax
  402463:	48 c7 c1 ff ff ff ff 	mov    $0xffffffffffffffff,%rcx
  40246a:	f2 ae                	repnz scas %es:(%rdi),%al
  40246c:	48 f7 d1             	not    %rcx
  40246f:	8d 41 ff             	lea    -0x1(%rcx),%eax
  402472:	e9 aa 00 00 00       	jmpq   402521 <urlencode+0xdc>
  402477:	44 0f b6 03          	movzbl (%rbx),%r8d
  40247b:	41 80 f8 2a          	cmp    $0x2a,%r8b
  40247f:	0f 94 c2             	sete   %dl
  402482:	41 80 f8 2d          	cmp    $0x2d,%r8b
  402486:	0f 94 c0             	sete   %al
  402489:	08 c2                	or     %al,%dl
  40248b:	75 24                	jne    4024b1 <urlencode+0x6c>
  40248d:	41 80 f8 2e          	cmp    $0x2e,%r8b
  402491:	74 1e                	je     4024b1 <urlencode+0x6c>
  402493:	41 80 f8 5f          	cmp    $0x5f,%r8b
  402497:	74 18                	je     4024b1 <urlencode+0x6c>
  402499:	41 8d 40 d0          	lea    -0x30(%r8),%eax
  40249d:	3c 09                	cmp    $0x9,%al
  40249f:	76 10                	jbe    4024b1 <urlencode+0x6c>
  4024a1:	41 8d 40 bf          	lea    -0x41(%r8),%eax
  4024a5:	3c 19                	cmp    $0x19,%al
  4024a7:	76 08                	jbe    4024b1 <urlencode+0x6c>
  4024a9:	41 8d 40 9f          	lea    -0x61(%r8),%eax
  4024ad:	3c 19                	cmp    $0x19,%al
  4024af:	77 0a                	ja     4024bb <urlencode+0x76>
  4024b1:	44 88 45 00          	mov    %r8b,0x0(%rbp)
  4024b5:	48 8d 6d 01          	lea    0x1(%rbp),%rbp
  4024b9:	eb 5f                	jmp    40251a <urlencode+0xd5>
  4024bb:	41 80 f8 20          	cmp    $0x20,%r8b
  4024bf:	75 0a                	jne    4024cb <urlencode+0x86>
  4024c1:	c6 45 00 2b          	movb   $0x2b,0x0(%rbp)
  4024c5:	48 8d 6d 01          	lea    0x1(%rbp),%rbp
  4024c9:	eb 4f                	jmp    40251a <urlencode+0xd5>
  4024cb:	41 8d 40 e0          	lea    -0x20(%r8),%eax
  4024cf:	3c 5f                	cmp    $0x5f,%al
  4024d1:	0f 96 c2             	setbe  %dl
  4024d4:	41 80 f8 09          	cmp    $0x9,%r8b
  4024d8:	0f 94 c0             	sete   %al
  4024db:	08 c2                	or     %al,%dl
  4024dd:	74 50                	je     40252f <urlencode+0xea>
  4024df:	45 0f b6 c0          	movzbl %r8b,%r8d
  4024e3:	b9 c8 38 40 00       	mov    $0x4038c8,%ecx
  4024e8:	ba 08 00 00 00       	mov    $0x8,%edx
  4024ed:	be 01 00 00 00       	mov    $0x1,%esi
  4024f2:	48 89 e7             	mov    %rsp,%rdi
  4024f5:	b8 00 00 00 00       	mov    $0x0,%eax
  4024fa:	e8 a1 e9 ff ff       	callq  400ea0 <__sprintf_chk@plt>
  4024ff:	0f b6 04 24          	movzbl (%rsp),%eax
  402503:	88 45 00             	mov    %al,0x0(%rbp)
  402506:	0f b6 44 24 01       	movzbl 0x1(%rsp),%eax
  40250b:	88 45 01             	mov    %al,0x1(%rbp)
  40250e:	0f b6 44 24 02       	movzbl 0x2(%rsp),%eax
  402513:	88 45 02             	mov    %al,0x2(%rbp)
  402516:	48 8d 6d 03          	lea    0x3(%rbp),%rbp
  40251a:	48 83 c3 01          	add    $0x1,%rbx
  40251e:	44 89 e0             	mov    %r12d,%eax
  402521:	44 8d 60 ff          	lea    -0x1(%rax),%r12d
  402525:	85 c0                	test   %eax,%eax
  402527:	0f 85 4a ff ff ff    	jne    402477 <urlencode+0x32>
  40252d:	eb 05                	jmp    402534 <urlencode+0xef>
  40252f:	b8 ff ff ff ff       	mov    $0xffffffff,%eax
  402534:	48 8b 74 24 08       	mov    0x8(%rsp),%rsi
  402539:	64 48 33 34 25 28 00 	xor    %fs:0x28,%rsi
  402540:	00 00 
  402542:	74 05                	je     402549 <urlencode+0x104>
  402544:	e8 c7 e7 ff ff       	callq  400d10 <__stack_chk_fail@plt>
  402549:	48 83 c4 10          	add    $0x10,%rsp
  40254d:	5b                   	pop    %rbx
  40254e:	5d                   	pop    %rbp
  40254f:	41 5c                	pop    %r12
  402551:	c3                   	retq   

0000000000402552 <submitr>:
  402552:	41 57                	push   %r15
  402554:	41 56                	push   %r14
  402556:	41 55                	push   %r13
  402558:	41 54                	push   %r12
  40255a:	55                   	push   %rbp
  40255b:	53                   	push   %rbx
  40255c:	48 81 ec 58 a0 00 00 	sub    $0xa058,%rsp
  402563:	49 89 fd             	mov    %rdi,%r13
  402566:	89 74 24 0c          	mov    %esi,0xc(%rsp)
  40256a:	48 89 14 24          	mov    %rdx,(%rsp)
  40256e:	49 89 ce             	mov    %rcx,%r14
  402571:	4d 89 c7             	mov    %r8,%r15
  402574:	4d 89 cc             	mov    %r9,%r12
  402577:	48 8b 9c 24 90 a0 00 	mov    0xa090(%rsp),%rbx
  40257e:	00 
  40257f:	64 48 8b 04 25 28 00 	mov    %fs:0x28,%rax
  402586:	00 00 
  402588:	48 89 84 24 48 a0 00 	mov    %rax,0xa048(%rsp)
  40258f:	00 
  402590:	31 c0                	xor    %eax,%eax
  402592:	c7 44 24 1c 00 00 00 	movl   $0x0,0x1c(%rsp)
  402599:	00 
  40259a:	ba 00 00 00 00       	mov    $0x0,%edx
  40259f:	be 01 00 00 00       	mov    $0x1,%esi
  4025a4:	bf 02 00 00 00       	mov    $0x2,%edi
  4025a9:	e8 02 e9 ff ff       	callq  400eb0 <socket@plt>
  4025ae:	85 c0                	test   %eax,%eax
  4025b0:	79 4e                	jns    402600 <submitr+0xae>
  4025b2:	48 b8 45 72 72 6f 72 	movabs $0x43203a726f727245,%rax
  4025b9:	3a 20 43 
  4025bc:	48 89 03             	mov    %rax,(%rbx)
  4025bf:	48 b8 6c 69 65 6e 74 	movabs $0x6e7520746e65696c,%rax
  4025c6:	20 75 6e 
  4025c9:	48 89 43 08          	mov    %rax,0x8(%rbx)
  4025cd:	48 b8 61 62 6c 65 20 	movabs $0x206f7420656c6261,%rax
  4025d4:	74 6f 20 
  4025d7:	48 89 43 10          	mov    %rax,0x10(%rbx)
  4025db:	48 b8 63 72 65 61 74 	movabs $0x7320657461657263,%rax
  4025e2:	65 20 73 
  4025e5:	48 89 43 18          	mov    %rax,0x18(%rbx)
  4025e9:	c7 43 20 6f 63 6b 65 	movl   $0x656b636f,0x20(%rbx)
  4025f0:	66 c7 43 24 74 00    	movw   $0x74,0x24(%rbx)
  4025f6:	b8 ff ff ff ff       	mov    $0xffffffff,%eax
  4025fb:	e9 b3 06 00 00       	jmpq   402cb3 <submitr+0x761>
  402600:	89 c5                	mov    %eax,%ebp
  402602:	4c 89 ef             	mov    %r13,%rdi
  402605:	e8 86 e7 ff ff       	callq  400d90 <gethostbyname@plt>
  40260a:	48 85 c0             	test   %rax,%rax
  40260d:	75 75                	jne    402684 <submitr+0x132>
  40260f:	48 b8 45 72 72 6f 72 	movabs $0x44203a726f727245,%rax
  402616:	3a 20 44 
  402619:	48 89 03             	mov    %rax,(%rbx)
  40261c:	48 b8 4e 53 20 69 73 	movabs $0x6e7520736920534e,%rax
  402623:	20 75 6e 
  402626:	48 89 43 08          	mov    %rax,0x8(%rbx)
  40262a:	48 b8 61 62 6c 65 20 	movabs $0x206f7420656c6261,%rax
  402631:	74 6f 20 
  402634:	48 89 43 10          	mov    %rax,0x10(%rbx)
  402638:	48 b8 72 65 73 6f 6c 	movabs $0x2065766c6f736572,%rax
  40263f:	76 65 20 
  402642:	48 89 43 18          	mov    %rax,0x18(%rbx)
  402646:	48 b8 41 75 74 6f 6c 	movabs $0x2062616c6f747541,%rax
  40264d:	61 62 20 
  402650:	48 89 43 20          	mov    %rax,0x20(%rbx)
  402654:	48 b8 73 65 72 76 65 	movabs $0x6120726576726573,%rax
  40265b:	72 20 61 
  40265e:	48 89 43 28          	mov    %rax,0x28(%rbx)
  402662:	c7 43 30 64 64 72 65 	movl   $0x65726464,0x30(%rbx)
  402669:	66 c7 43 34 73 73    	movw   $0x7373,0x34(%rbx)
  40266f:	c6 43 36 00          	movb   $0x0,0x36(%rbx)
  402673:	89 ef                	mov    %ebp,%edi
  402675:	e8 d6 e6 ff ff       	callq  400d50 <close@plt>
  40267a:	b8 ff ff ff ff       	mov    $0xffffffff,%eax
  40267f:	e9 2f 06 00 00       	jmpq   402cb3 <submitr+0x761>
  402684:	48 c7 44 24 20 00 00 	movq   $0x0,0x20(%rsp)
  40268b:	00 00 
  40268d:	48 c7 44 24 28 00 00 	movq   $0x0,0x28(%rsp)
  402694:	00 00 
  402696:	66 c7 44 24 20 02 00 	movw   $0x2,0x20(%rsp)
  40269d:	48 63 50 14          	movslq 0x14(%rax),%rdx
  4026a1:	48 8b 40 18          	mov    0x18(%rax),%rax
  4026a5:	48 8b 30             	mov    (%rax),%rsi
  4026a8:	48 8d 7c 24 24       	lea    0x24(%rsp),%rdi
  4026ad:	b9 0c 00 00 00       	mov    $0xc,%ecx
  4026b2:	e8 e9 e6 ff ff       	callq  400da0 <__memmove_chk@plt>
  4026b7:	0f b7 44 24 0c       	movzwl 0xc(%rsp),%eax
  4026bc:	66 c1 c8 08          	ror    $0x8,%ax
  4026c0:	66 89 44 24 22       	mov    %ax,0x22(%rsp)
  4026c5:	ba 10 00 00 00       	mov    $0x10,%edx
  4026ca:	48 8d 74 24 20       	lea    0x20(%rsp),%rsi
  4026cf:	89 ef                	mov    %ebp,%edi
  4026d1:	e8 aa e7 ff ff       	callq  400e80 <connect@plt>
  4026d6:	85 c0                	test   %eax,%eax
  4026d8:	79 67                	jns    402741 <submitr+0x1ef>
  4026da:	48 b8 45 72 72 6f 72 	movabs $0x55203a726f727245,%rax
  4026e1:	3a 20 55 
  4026e4:	48 89 03             	mov    %rax,(%rbx)
  4026e7:	48 b8 6e 61 62 6c 65 	movabs $0x6f7420656c62616e,%rax
  4026ee:	20 74 6f 
  4026f1:	48 89 43 08          	mov    %rax,0x8(%rbx)
  4026f5:	48 b8 20 63 6f 6e 6e 	movabs $0x7463656e6e6f6320,%rax
  4026fc:	65 63 74 
  4026ff:	48 89 43 10          	mov    %rax,0x10(%rbx)
  402703:	48 b8 20 74 6f 20 74 	movabs $0x20656874206f7420,%rax
  40270a:	68 65 20 
  40270d:	48 89 43 18          	mov    %rax,0x18(%rbx)
  402711:	48 b8 41 75 74 6f 6c 	movabs $0x2062616c6f747541,%rax
  402718:	61 62 20 
  40271b:	48 89 43 20          	mov    %rax,0x20(%rbx)
  40271f:	c7 43 28 73 65 72 76 	movl   $0x76726573,0x28(%rbx)
  402726:	66 c7 43 2c 65 72    	movw   $0x7265,0x2c(%rbx)
  40272c:	c6 43 2e 00          	movb   $0x0,0x2e(%rbx)
  402730:	89 ef                	mov    %ebp,%edi
  402732:	e8 19 e6 ff ff       	callq  400d50 <close@plt>
  402737:	b8 ff ff ff ff       	mov    $0xffffffff,%eax
  40273c:	e9 72 05 00 00       	jmpq   402cb3 <submitr+0x761>
  402741:	48 c7 c6 ff ff ff ff 	mov    $0xffffffffffffffff,%rsi
  402748:	b8 00 00 00 00       	mov    $0x0,%eax
  40274d:	48 89 f1             	mov    %rsi,%rcx
  402750:	4c 89 e7             	mov    %r12,%rdi
  402753:	f2 ae                	repnz scas %es:(%rdi),%al
  402755:	48 f7 d1             	not    %rcx
  402758:	48 89 ca             	mov    %rcx,%rdx
  40275b:	48 89 f1             	mov    %rsi,%rcx
  40275e:	48 8b 3c 24          	mov    (%rsp),%rdi
  402762:	f2 ae                	repnz scas %es:(%rdi),%al
  402764:	48 f7 d1             	not    %rcx
  402767:	49 89 c8             	mov    %rcx,%r8
  40276a:	48 89 f1             	mov    %rsi,%rcx
  40276d:	4c 89 f7             	mov    %r14,%rdi
  402770:	f2 ae                	repnz scas %es:(%rdi),%al
  402772:	48 f7 d1             	not    %rcx
  402775:	4d 8d 44 08 fe       	lea    -0x2(%r8,%rcx,1),%r8
  40277a:	48 89 f1             	mov    %rsi,%rcx
  40277d:	4c 89 ff             	mov    %r15,%rdi
  402780:	f2 ae                	repnz scas %es:(%rdi),%al
  402782:	48 89 c8             	mov    %rcx,%rax
  402785:	48 f7 d0             	not    %rax
  402788:	49 8d 4c 00 ff       	lea    -0x1(%r8,%rax,1),%rcx
  40278d:	48 8d 44 52 fd       	lea    -0x3(%rdx,%rdx,2),%rax
  402792:	48 8d 84 01 80 00 00 	lea    0x80(%rcx,%rax,1),%rax
  402799:	00 
  40279a:	48 3d 00 20 00 00    	cmp    $0x2000,%rax
  4027a0:	76 72                	jbe    402814 <submitr+0x2c2>
  4027a2:	48 b8 45 72 72 6f 72 	movabs $0x52203a726f727245,%rax
  4027a9:	3a 20 52 
  4027ac:	48 89 03             	mov    %rax,(%rbx)
  4027af:	48 b8 65 73 75 6c 74 	movabs $0x747320746c757365,%rax
  4027b6:	20 73 74 
  4027b9:	48 89 43 08          	mov    %rax,0x8(%rbx)
  4027bd:	48 b8 72 69 6e 67 20 	movabs $0x6f6f7420676e6972,%rax
  4027c4:	74 6f 6f 
  4027c7:	48 89 43 10          	mov    %rax,0x10(%rbx)
  4027cb:	48 b8 20 6c 61 72 67 	movabs $0x202e656772616c20,%rax
  4027d2:	65 2e 20 
  4027d5:	48 89 43 18          	mov    %rax,0x18(%rbx)
  4027d9:	48 b8 49 6e 63 72 65 	movabs $0x6573616572636e49,%rax
  4027e0:	61 73 65 
  4027e3:	48 89 43 20          	mov    %rax,0x20(%rbx)
  4027e7:	48 b8 20 53 55 42 4d 	movabs $0x5254494d42555320,%rax
  4027ee:	49 54 52 
  4027f1:	48 89 43 28          	mov    %rax,0x28(%rbx)
  4027f5:	48 b8 5f 4d 41 58 42 	movabs $0x46554258414d5f,%rax
  4027fc:	55 46 00 
  4027ff:	48 89 43 30          	mov    %rax,0x30(%rbx)
  402803:	89 ef                	mov    %ebp,%edi
  402805:	e8 46 e5 ff ff       	callq  400d50 <close@plt>
  40280a:	b8 ff ff ff ff       	mov    $0xffffffff,%eax
  40280f:	e9 9f 04 00 00       	jmpq   402cb3 <submitr+0x761>
  402814:	48 8d b4 24 40 40 00 	lea    0x4040(%rsp),%rsi
  40281b:	00 
  40281c:	b9 00 04 00 00       	mov    $0x400,%ecx
  402821:	b8 00 00 00 00       	mov    $0x0,%eax
  402826:	48 89 f7             	mov    %rsi,%rdi
  402829:	f3 48 ab             	rep stos %rax,%es:(%rdi)
  40282c:	4c 89 e7             	mov    %r12,%rdi
  40282f:	e8 11 fc ff ff       	callq  402445 <urlencode>
  402834:	85 c0                	test   %eax,%eax
  402836:	0f 89 8a 00 00 00    	jns    4028c6 <submitr+0x374>
  40283c:	48 b8 45 72 72 6f 72 	movabs $0x52203a726f727245,%rax
  402843:	3a 20 52 
  402846:	48 89 03             	mov    %rax,(%rbx)
  402849:	48 b8 65 73 75 6c 74 	movabs $0x747320746c757365,%rax
  402850:	20 73 74 
  402853:	48 89 43 08          	mov    %rax,0x8(%rbx)
  402857:	48 b8 72 69 6e 67 20 	movabs $0x6e6f6320676e6972,%rax
  40285e:	63 6f 6e 
  402861:	48 89 43 10          	mov    %rax,0x10(%rbx)
  402865:	48 b8 74 61 69 6e 73 	movabs $0x6e6120736e696174,%rax
  40286c:	20 61 6e 
  40286f:	48 89 43 18          	mov    %rax,0x18(%rbx)
  402873:	48 b8 20 69 6c 6c 65 	movabs $0x6c6167656c6c6920,%rax
  40287a:	67 61 6c 
  40287d:	48 89 43 20          	mov    %rax,0x20(%rbx)
  402881:	48 b8 20 6f 72 20 75 	movabs $0x72706e7520726f20,%rax
  402888:	6e 70 72 
  40288b:	48 89 43 28          	mov    %rax,0x28(%rbx)
  40288f:	48 b8 69 6e 74 61 62 	movabs $0x20656c6261746e69,%rax
  402896:	6c 65 20 
  402899:	48 89 43 30          	mov    %rax,0x30(%rbx)
  40289d:	48 b8 63 68 61 72 61 	movabs $0x6574636172616863,%rax
  4028a4:	63 74 65 
  4028a7:	48 89 43 38          	mov    %rax,0x38(%rbx)
  4028ab:	66 c7 43 40 72 2e    	movw   $0x2e72,0x40(%rbx)
  4028b1:	c6 43 42 00          	movb   $0x0,0x42(%rbx)
  4028b5:	89 ef                	mov    %ebp,%edi
  4028b7:	e8 94 e4 ff ff       	callq  400d50 <close@plt>
  4028bc:	b8 ff ff ff ff       	mov    $0xffffffff,%eax
  4028c1:	e9 ed 03 00 00       	jmpq   402cb3 <submitr+0x761>
  4028c6:	4c 8d a4 24 40 20 00 	lea    0x2040(%rsp),%r12
  4028cd:	00 
  4028ce:	48 83 ec 08          	sub    $0x8,%rsp
  4028d2:	41 55                	push   %r13
  4028d4:	48 8d 84 24 50 40 00 	lea    0x4050(%rsp),%rax
  4028db:	00 
  4028dc:	50                   	push   %rax
  4028dd:	41 56                	push   %r14
  4028df:	4d 89 f9             	mov    %r15,%r9
  4028e2:	4c 8b 44 24 20       	mov    0x20(%rsp),%r8
  4028e7:	b9 38 38 40 00       	mov    $0x403838,%ecx
  4028ec:	ba 00 20 00 00       	mov    $0x2000,%edx
  4028f1:	be 01 00 00 00       	mov    $0x1,%esi
  4028f6:	4c 89 e7             	mov    %r12,%rdi
  4028f9:	b8 00 00 00 00       	mov    $0x0,%eax
  4028fe:	e8 9d e5 ff ff       	callq  400ea0 <__sprintf_chk@plt>
  402903:	b8 00 00 00 00       	mov    $0x0,%eax
  402908:	48 c7 c1 ff ff ff ff 	mov    $0xffffffffffffffff,%rcx
  40290f:	4c 89 e7             	mov    %r12,%rdi
  402912:	f2 ae                	repnz scas %es:(%rdi),%al
  402914:	48 f7 d1             	not    %rcx
  402917:	48 8d 51 ff          	lea    -0x1(%rcx),%rdx
  40291b:	48 83 c4 20          	add    $0x20,%rsp
  40291f:	4c 89 e6             	mov    %r12,%rsi
  402922:	89 ef                	mov    %ebp,%edi
  402924:	e8 8b f9 ff ff       	callq  4022b4 <rio_writen>
  402929:	48 85 c0             	test   %rax,%rax
  40292c:	79 6b                	jns    402999 <submitr+0x447>
  40292e:	48 b8 45 72 72 6f 72 	movabs $0x43203a726f727245,%rax
  402935:	3a 20 43 
  402938:	48 89 03             	mov    %rax,(%rbx)
  40293b:	48 b8 6c 69 65 6e 74 	movabs $0x6e7520746e65696c,%rax
  402942:	20 75 6e 
  402945:	48 89 43 08          	mov    %rax,0x8(%rbx)
  402949:	48 b8 61 62 6c 65 20 	movabs $0x206f7420656c6261,%rax
  402950:	74 6f 20 
  402953:	48 89 43 10          	mov    %rax,0x10(%rbx)
  402957:	48 b8 77 72 69 74 65 	movabs $0x6f74206574697277,%rax
  40295e:	20 74 6f 
  402961:	48 89 43 18          	mov    %rax,0x18(%rbx)
  402965:	48 b8 20 74 68 65 20 	movabs $0x7475412065687420,%rax
  40296c:	41 75 74 
  40296f:	48 89 43 20          	mov    %rax,0x20(%rbx)
  402973:	48 b8 6f 6c 61 62 20 	movabs $0x7265732062616c6f,%rax
  40297a:	73 65 72 
  40297d:	48 89 43 28          	mov    %rax,0x28(%rbx)
  402981:	c7 43 30 76 65 72 00 	movl   $0x726576,0x30(%rbx)
  402988:	89 ef                	mov    %ebp,%edi
  40298a:	e8 c1 e3 ff ff       	callq  400d50 <close@plt>
  40298f:	b8 ff ff ff ff       	mov    $0xffffffff,%eax
  402994:	e9 1a 03 00 00       	jmpq   402cb3 <submitr+0x761>
  402999:	89 ee                	mov    %ebp,%esi
  40299b:	48 8d 7c 24 30       	lea    0x30(%rsp),%rdi
  4029a0:	e8 cf f8 ff ff       	callq  402274 <rio_readinitb>
  4029a5:	ba 00 20 00 00       	mov    $0x2000,%edx
  4029aa:	48 8d b4 24 40 20 00 	lea    0x2040(%rsp),%rsi
  4029b1:	00 
  4029b2:	48 8d 7c 24 30       	lea    0x30(%rsp),%rdi
  4029b7:	e8 df f9 ff ff       	callq  40239b <rio_readlineb>
  4029bc:	48 85 c0             	test   %rax,%rax
  4029bf:	7f 7f                	jg     402a40 <submitr+0x4ee>
  4029c1:	48 b8 45 72 72 6f 72 	movabs $0x43203a726f727245,%rax
  4029c8:	3a 20 43 
  4029cb:	48 89 03             	mov    %rax,(%rbx)
  4029ce:	48 b8 6c 69 65 6e 74 	movabs $0x6e7520746e65696c,%rax
  4029d5:	20 75 6e 
  4029d8:	48 89 43 08          	mov    %rax,0x8(%rbx)
  4029dc:	48 b8 61 62 6c 65 20 	movabs $0x206f7420656c6261,%rax
  4029e3:	74 6f 20 
  4029e6:	48 89 43 10          	mov    %rax,0x10(%rbx)
  4029ea:	48 b8 72 65 61 64 20 	movabs $0x7269662064616572,%rax
  4029f1:	66 69 72 
  4029f4:	48 89 43 18          	mov    %rax,0x18(%rbx)
  4029f8:	48 b8 73 74 20 68 65 	movabs $0x6564616568207473,%rax
  4029ff:	61 64 65 
  402a02:	48 89 43 20          	mov    %rax,0x20(%rbx)
  402a06:	48 b8 72 20 66 72 6f 	movabs $0x41206d6f72662072,%rax
  402a0d:	6d 20 41 
  402a10:	48 89 43 28          	mov    %rax,0x28(%rbx)
  402a14:	48 b8 75 74 6f 6c 61 	movabs $0x732062616c6f7475,%rax
  402a1b:	62 20 73 
  402a1e:	48 89 43 30          	mov    %rax,0x30(%rbx)
  402a22:	c7 43 38 65 72 76 65 	movl   $0x65767265,0x38(%rbx)
  402a29:	66 c7 43 3c 72 00    	movw   $0x72,0x3c(%rbx)
  402a2f:	89 ef                	mov    %ebp,%edi
  402a31:	e8 1a e3 ff ff       	callq  400d50 <close@plt>
  402a36:	b8 ff ff ff ff       	mov    $0xffffffff,%eax
  402a3b:	e9 73 02 00 00       	jmpq   402cb3 <submitr+0x761>
  402a40:	4c 8d 84 24 40 80 00 	lea    0x8040(%rsp),%r8
  402a47:	00 
  402a48:	48 8d 4c 24 1c       	lea    0x1c(%rsp),%rcx
  402a4d:	48 8d 94 24 40 60 00 	lea    0x6040(%rsp),%rdx
  402a54:	00 
  402a55:	be cf 38 40 00       	mov    $0x4038cf,%esi
  402a5a:	48 8d bc 24 40 20 00 	lea    0x2040(%rsp),%rdi
  402a61:	00 
  402a62:	b8 00 00 00 00       	mov    $0x0,%eax
  402a67:	e8 94 e3 ff ff       	callq  400e00 <__isoc99_sscanf@plt>
  402a6c:	e9 92 00 00 00       	jmpq   402b03 <submitr+0x5b1>
  402a71:	ba 00 20 00 00       	mov    $0x2000,%edx
  402a76:	48 8d b4 24 40 20 00 	lea    0x2040(%rsp),%rsi
  402a7d:	00 
  402a7e:	48 8d 7c 24 30       	lea    0x30(%rsp),%rdi
  402a83:	e8 13 f9 ff ff       	callq  40239b <rio_readlineb>
  402a88:	48 85 c0             	test   %rax,%rax
  402a8b:	7f 76                	jg     402b03 <submitr+0x5b1>
  402a8d:	48 b8 45 72 72 6f 72 	movabs $0x43203a726f727245,%rax
  402a94:	3a 20 43 
  402a97:	48 89 03             	mov    %rax,(%rbx)
  402a9a:	48 b8 6c 69 65 6e 74 	movabs $0x6e7520746e65696c,%rax
  402aa1:	20 75 6e 
  402aa4:	48 89 43 08          	mov    %rax,0x8(%rbx)
  402aa8:	48 b8 61 62 6c 65 20 	movabs $0x206f7420656c6261,%rax
  402aaf:	74 6f 20 
  402ab2:	48 89 43 10          	mov    %rax,0x10(%rbx)
  402ab6:	48 b8 72 65 61 64 20 	movabs $0x6165682064616572,%rax
  402abd:	68 65 61 
  402ac0:	48 89 43 18          	mov    %rax,0x18(%rbx)
  402ac4:	48 b8 64 65 72 73 20 	movabs $0x6f72662073726564,%rax
  402acb:	66 72 6f 
  402ace:	48 89 43 20          	mov    %rax,0x20(%rbx)
  402ad2:	48 b8 6d 20 41 75 74 	movabs $0x616c6f747541206d,%rax
  402ad9:	6f 6c 61 
  402adc:	48 89 43 28          	mov    %rax,0x28(%rbx)
  402ae0:	48 b8 62 20 73 65 72 	movabs $0x7265767265732062,%rax
  402ae7:	76 65 72 
  402aea:	48 89 43 30          	mov    %rax,0x30(%rbx)
  402aee:	c6 43 38 00          	movb   $0x0,0x38(%rbx)
  402af2:	89 ef                	mov    %ebp,%edi
  402af4:	e8 57 e2 ff ff       	callq  400d50 <close@plt>
  402af9:	b8 ff ff ff ff       	mov    $0xffffffff,%eax
  402afe:	e9 b0 01 00 00       	jmpq   402cb3 <submitr+0x761>
  402b03:	0f b6 94 24 40 20 00 	movzbl 0x2040(%rsp),%edx
  402b0a:	00 
  402b0b:	b8 0d 00 00 00       	mov    $0xd,%eax
  402b10:	29 d0                	sub    %edx,%eax
  402b12:	75 1b                	jne    402b2f <submitr+0x5dd>
  402b14:	0f b6 94 24 41 20 00 	movzbl 0x2041(%rsp),%edx
  402b1b:	00 
  402b1c:	b8 0a 00 00 00       	mov    $0xa,%eax
  402b21:	29 d0                	sub    %edx,%eax
  402b23:	75 0a                	jne    402b2f <submitr+0x5dd>
  402b25:	0f b6 84 24 42 20 00 	movzbl 0x2042(%rsp),%eax
  402b2c:	00 
  402b2d:	f7 d8                	neg    %eax
  402b2f:	85 c0                	test   %eax,%eax
  402b31:	0f 85 3a ff ff ff    	jne    402a71 <submitr+0x51f>
  402b37:	ba 00 20 00 00       	mov    $0x2000,%edx
  402b3c:	48 8d b4 24 40 20 00 	lea    0x2040(%rsp),%rsi
  402b43:	00 
  402b44:	48 8d 7c 24 30       	lea    0x30(%rsp),%rdi
  402b49:	e8 4d f8 ff ff       	callq  40239b <rio_readlineb>
  402b4e:	48 85 c0             	test   %rax,%rax
  402b51:	0f 8f 80 00 00 00    	jg     402bd7 <submitr+0x685>
  402b57:	48 b8 45 72 72 6f 72 	movabs $0x43203a726f727245,%rax
  402b5e:	3a 20 43 
  402b61:	48 89 03             	mov    %rax,(%rbx)
  402b64:	48 b8 6c 69 65 6e 74 	movabs $0x6e7520746e65696c,%rax
  402b6b:	20 75 6e 
  402b6e:	48 89 43 08          	mov    %rax,0x8(%rbx)
  402b72:	48 b8 61 62 6c 65 20 	movabs $0x206f7420656c6261,%rax
  402b79:	74 6f 20 
  402b7c:	48 89 43 10          	mov    %rax,0x10(%rbx)
  402b80:	48 b8 72 65 61 64 20 	movabs $0x6174732064616572,%rax
  402b87:	73 74 61 
  402b8a:	48 89 43 18          	mov    %rax,0x18(%rbx)
  402b8e:	48 b8 74 75 73 20 6d 	movabs $0x7373656d20737574,%rax
  402b95:	65 73 73 
  402b98:	48 89 43 20          	mov    %rax,0x20(%rbx)
  402b9c:	48 b8 61 67 65 20 66 	movabs $0x6d6f726620656761,%rax
  402ba3:	72 6f 6d 
  402ba6:	48 89 43 28          	mov    %rax,0x28(%rbx)
  402baa:	48 b8 20 41 75 74 6f 	movabs $0x62616c6f74754120,%rax
  402bb1:	6c 61 62 
  402bb4:	48 89 43 30          	mov    %rax,0x30(%rbx)
  402bb8:	48 b8 20 73 65 72 76 	movabs $0x72657672657320,%rax
  402bbf:	65 72 00 
  402bc2:	48 89 43 38          	mov    %rax,0x38(%rbx)
  402bc6:	89 ef                	mov    %ebp,%edi
  402bc8:	e8 83 e1 ff ff       	callq  400d50 <close@plt>
  402bcd:	b8 ff ff ff ff       	mov    $0xffffffff,%eax
  402bd2:	e9 dc 00 00 00       	jmpq   402cb3 <submitr+0x761>
  402bd7:	44 8b 44 24 1c       	mov    0x1c(%rsp),%r8d
  402bdc:	41 81 f8 c8 00 00 00 	cmp    $0xc8,%r8d
  402be3:	74 37                	je     402c1c <submitr+0x6ca>
  402be5:	4c 8d 8c 24 40 80 00 	lea    0x8040(%rsp),%r9
  402bec:	00 
  402bed:	b9 98 38 40 00       	mov    $0x403898,%ecx
  402bf2:	48 c7 c2 ff ff ff ff 	mov    $0xffffffffffffffff,%rdx
  402bf9:	be 01 00 00 00       	mov    $0x1,%esi
  402bfe:	48 89 df             	mov    %rbx,%rdi
  402c01:	b8 00 00 00 00       	mov    $0x0,%eax
  402c06:	e8 95 e2 ff ff       	callq  400ea0 <__sprintf_chk@plt>
  402c0b:	89 ef                	mov    %ebp,%edi
  402c0d:	e8 3e e1 ff ff       	callq  400d50 <close@plt>
  402c12:	b8 ff ff ff ff       	mov    $0xffffffff,%eax
  402c17:	e9 97 00 00 00       	jmpq   402cb3 <submitr+0x761>
  402c1c:	48 8d b4 24 40 20 00 	lea    0x2040(%rsp),%rsi
  402c23:	00 
  402c24:	48 89 df             	mov    %rbx,%rdi
  402c27:	e8 b4 e0 ff ff       	callq  400ce0 <strcpy@plt>
  402c2c:	89 ef                	mov    %ebp,%edi
  402c2e:	e8 1d e1 ff ff       	callq  400d50 <close@plt>
  402c33:	0f b6 03             	movzbl (%rbx),%eax
  402c36:	ba 4f 00 00 00       	mov    $0x4f,%edx
  402c3b:	29 c2                	sub    %eax,%edx
  402c3d:	75 22                	jne    402c61 <submitr+0x70f>
  402c3f:	0f b6 4b 01          	movzbl 0x1(%rbx),%ecx
  402c43:	b8 4b 00 00 00       	mov    $0x4b,%eax
  402c48:	29 c8                	sub    %ecx,%eax
  402c4a:	75 17                	jne    402c63 <submitr+0x711>
  402c4c:	0f b6 4b 02          	movzbl 0x2(%rbx),%ecx
  402c50:	b8 0a 00 00 00       	mov    $0xa,%eax
  402c55:	29 c8                	sub    %ecx,%eax
  402c57:	75 0a                	jne    402c63 <submitr+0x711>
  402c59:	0f b6 43 03          	movzbl 0x3(%rbx),%eax
  402c5d:	f7 d8                	neg    %eax
  402c5f:	eb 02                	jmp    402c63 <submitr+0x711>
  402c61:	89 d0                	mov    %edx,%eax
  402c63:	85 c0                	test   %eax,%eax
  402c65:	74 40                	je     402ca7 <submitr+0x755>
  402c67:	bf e0 38 40 00       	mov    $0x4038e0,%edi
  402c6c:	b9 05 00 00 00       	mov    $0x5,%ecx
  402c71:	48 89 de             	mov    %rbx,%rsi
  402c74:	f3 a6                	repz cmpsb %es:(%rdi),%ds:(%rsi)
  402c76:	0f 97 c0             	seta   %al
  402c79:	0f 92 c1             	setb   %cl
  402c7c:	29 c8                	sub    %ecx,%eax
  402c7e:	0f be c0             	movsbl %al,%eax
  402c81:	85 c0                	test   %eax,%eax
  402c83:	74 2e                	je     402cb3 <submitr+0x761>
  402c85:	85 d2                	test   %edx,%edx
  402c87:	75 13                	jne    402c9c <submitr+0x74a>
  402c89:	0f b6 43 01          	movzbl 0x1(%rbx),%eax
  402c8d:	ba 4b 00 00 00       	mov    $0x4b,%edx
  402c92:	29 c2                	sub    %eax,%edx
  402c94:	75 06                	jne    402c9c <submitr+0x74a>
  402c96:	0f b6 53 02          	movzbl 0x2(%rbx),%edx
  402c9a:	f7 da                	neg    %edx
  402c9c:	85 d2                	test   %edx,%edx
  402c9e:	75 0e                	jne    402cae <submitr+0x75c>
  402ca0:	b8 00 00 00 00       	mov    $0x0,%eax
  402ca5:	eb 0c                	jmp    402cb3 <submitr+0x761>
  402ca7:	b8 00 00 00 00       	mov    $0x0,%eax
  402cac:	eb 05                	jmp    402cb3 <submitr+0x761>
  402cae:	b8 ff ff ff ff       	mov    $0xffffffff,%eax
  402cb3:	48 8b 9c 24 48 a0 00 	mov    0xa048(%rsp),%rbx
  402cba:	00 
  402cbb:	64 48 33 1c 25 28 00 	xor    %fs:0x28,%rbx
  402cc2:	00 00 
  402cc4:	74 05                	je     402ccb <submitr+0x779>
  402cc6:	e8 45 e0 ff ff       	callq  400d10 <__stack_chk_fail@plt>
  402ccb:	48 81 c4 58 a0 00 00 	add    $0xa058,%rsp
  402cd2:	5b                   	pop    %rbx
  402cd3:	5d                   	pop    %rbp
  402cd4:	41 5c                	pop    %r12
  402cd6:	41 5d                	pop    %r13
  402cd8:	41 5e                	pop    %r14
  402cda:	41 5f                	pop    %r15
  402cdc:	c3                   	retq   

0000000000402cdd <init_timeout>:
  402cdd:	85 ff                	test   %edi,%edi
  402cdf:	74 23                	je     402d04 <init_timeout+0x27>
  402ce1:	53                   	push   %rbx
  402ce2:	89 fb                	mov    %edi,%ebx
  402ce4:	85 ff                	test   %edi,%edi
  402ce6:	79 05                	jns    402ced <init_timeout+0x10>
  402ce8:	bb 00 00 00 00       	mov    $0x0,%ebx
  402ced:	be 86 22 40 00       	mov    $0x402286,%esi
  402cf2:	bf 0e 00 00 00       	mov    $0xe,%edi
  402cf7:	e8 84 e0 ff ff       	callq  400d80 <signal@plt>
  402cfc:	89 df                	mov    %ebx,%edi
  402cfe:	e8 3d e0 ff ff       	callq  400d40 <alarm@plt>
  402d03:	5b                   	pop    %rbx
  402d04:	f3 c3                	repz retq 

0000000000402d06 <init_driver>:
  402d06:	55                   	push   %rbp
  402d07:	53                   	push   %rbx
  402d08:	48 83 ec 28          	sub    $0x28,%rsp
  402d0c:	48 89 fd             	mov    %rdi,%rbp
  402d0f:	64 48 8b 04 25 28 00 	mov    %fs:0x28,%rax
  402d16:	00 00 
  402d18:	48 89 44 24 18       	mov    %rax,0x18(%rsp)
  402d1d:	31 c0                	xor    %eax,%eax
  402d1f:	be 01 00 00 00       	mov    $0x1,%esi
  402d24:	bf 0d 00 00 00       	mov    $0xd,%edi
  402d29:	e8 52 e0 ff ff       	callq  400d80 <signal@plt>
  402d2e:	be 01 00 00 00       	mov    $0x1,%esi
  402d33:	bf 1d 00 00 00       	mov    $0x1d,%edi
  402d38:	e8 43 e0 ff ff       	callq  400d80 <signal@plt>
  402d3d:	be 01 00 00 00       	mov    $0x1,%esi
  402d42:	bf 1d 00 00 00       	mov    $0x1d,%edi
  402d47:	e8 34 e0 ff ff       	callq  400d80 <signal@plt>
  402d4c:	ba 00 00 00 00       	mov    $0x0,%edx
  402d51:	be 01 00 00 00       	mov    $0x1,%esi
  402d56:	bf 02 00 00 00       	mov    $0x2,%edi
  402d5b:	e8 50 e1 ff ff       	callq  400eb0 <socket@plt>
  402d60:	85 c0                	test   %eax,%eax
  402d62:	79 4f                	jns    402db3 <init_driver+0xad>
  402d64:	48 b8 45 72 72 6f 72 	movabs $0x43203a726f727245,%rax
  402d6b:	3a 20 43 
  402d6e:	48 89 45 00          	mov    %rax,0x0(%rbp)
  402d72:	48 b8 6c 69 65 6e 74 	movabs $0x6e7520746e65696c,%rax
  402d79:	20 75 6e 
  402d7c:	48 89 45 08          	mov    %rax,0x8(%rbp)
  402d80:	48 b8 61 62 6c 65 20 	movabs $0x206f7420656c6261,%rax
  402d87:	74 6f 20 
  402d8a:	48 89 45 10          	mov    %rax,0x10(%rbp)
  402d8e:	48 b8 63 72 65 61 74 	movabs $0x7320657461657263,%rax
  402d95:	65 20 73 
  402d98:	48 89 45 18          	mov    %rax,0x18(%rbp)
  402d9c:	c7 45 20 6f 63 6b 65 	movl   $0x656b636f,0x20(%rbp)
  402da3:	66 c7 45 24 74 00    	movw   $0x74,0x24(%rbp)
  402da9:	b8 ff ff ff ff       	mov    $0xffffffff,%eax
  402dae:	e9 2a 01 00 00       	jmpq   402edd <init_driver+0x1d7>
  402db3:	89 c3                	mov    %eax,%ebx
  402db5:	bf 05 34 40 00       	mov    $0x403405,%edi
  402dba:	e8 d1 df ff ff       	callq  400d90 <gethostbyname@plt>
  402dbf:	48 85 c0             	test   %rax,%rax
  402dc2:	75 68                	jne    402e2c <init_driver+0x126>
  402dc4:	48 b8 45 72 72 6f 72 	movabs $0x44203a726f727245,%rax
  402dcb:	3a 20 44 
  402dce:	48 89 45 00          	mov    %rax,0x0(%rbp)
  402dd2:	48 b8 4e 53 20 69 73 	movabs $0x6e7520736920534e,%rax
  402dd9:	20 75 6e 
  402ddc:	48 89 45 08          	mov    %rax,0x8(%rbp)
  402de0:	48 b8 61 62 6c 65 20 	movabs $0x206f7420656c6261,%rax
  402de7:	74 6f 20 
  402dea:	48 89 45 10          	mov    %rax,0x10(%rbp)
  402dee:	48 b8 72 65 73 6f 6c 	movabs $0x2065766c6f736572,%rax
  402df5:	76 65 20 
  402df8:	48 89 45 18          	mov    %rax,0x18(%rbp)
  402dfc:	48 b8 73 65 72 76 65 	movabs $0x6120726576726573,%rax
  402e03:	72 20 61 
  402e06:	48 89 45 20          	mov    %rax,0x20(%rbp)
  402e0a:	c7 45 28 64 64 72 65 	movl   $0x65726464,0x28(%rbp)
  402e11:	66 c7 45 2c 73 73    	movw   $0x7373,0x2c(%rbp)
  402e17:	c6 45 2e 00          	movb   $0x0,0x2e(%rbp)
  402e1b:	89 df                	mov    %ebx,%edi
  402e1d:	e8 2e df ff ff       	callq  400d50 <close@plt>
  402e22:	b8 ff ff ff ff       	mov    $0xffffffff,%eax
  402e27:	e9 b1 00 00 00       	jmpq   402edd <init_driver+0x1d7>
  402e2c:	48 c7 04 24 00 00 00 	movq   $0x0,(%rsp)
  402e33:	00 
  402e34:	48 c7 44 24 08 00 00 	movq   $0x0,0x8(%rsp)
  402e3b:	00 00 
  402e3d:	66 c7 04 24 02 00    	movw   $0x2,(%rsp)
  402e43:	48 63 50 14          	movslq 0x14(%rax),%rdx
  402e47:	48 8b 40 18          	mov    0x18(%rax),%rax
  402e4b:	48 8b 30             	mov    (%rax),%rsi
  402e4e:	48 8d 7c 24 04       	lea    0x4(%rsp),%rdi
  402e53:	b9 0c 00 00 00       	mov    $0xc,%ecx
  402e58:	e8 43 df ff ff       	callq  400da0 <__memmove_chk@plt>
  402e5d:	66 c7 44 24 02 00 50 	movw   $0x5000,0x2(%rsp)
  402e64:	ba 10 00 00 00       	mov    $0x10,%edx
  402e69:	48 89 e6             	mov    %rsp,%rsi
  402e6c:	89 df                	mov    %ebx,%edi
  402e6e:	e8 0d e0 ff ff       	callq  400e80 <connect@plt>
  402e73:	85 c0                	test   %eax,%eax
  402e75:	79 50                	jns    402ec7 <init_driver+0x1c1>
  402e77:	48 b8 45 72 72 6f 72 	movabs $0x55203a726f727245,%rax
  402e7e:	3a 20 55 
  402e81:	48 89 45 00          	mov    %rax,0x0(%rbp)
  402e85:	48 b8 6e 61 62 6c 65 	movabs $0x6f7420656c62616e,%rax
  402e8c:	20 74 6f 
  402e8f:	48 89 45 08          	mov    %rax,0x8(%rbp)
  402e93:	48 b8 20 63 6f 6e 6e 	movabs $0x7463656e6e6f6320,%rax
  402e9a:	65 63 74 
  402e9d:	48 89 45 10          	mov    %rax,0x10(%rbp)
  402ea1:	48 b8 20 74 6f 20 73 	movabs $0x76726573206f7420,%rax
  402ea8:	65 72 76 
  402eab:	48 89 45 18          	mov    %rax,0x18(%rbp)
  402eaf:	66 c7 45 20 65 72    	movw   $0x7265,0x20(%rbp)
  402eb5:	c6 45 22 00          	movb   $0x0,0x22(%rbp)
  402eb9:	89 df                	mov    %ebx,%edi
  402ebb:	e8 90 de ff ff       	callq  400d50 <close@plt>
  402ec0:	b8 ff ff ff ff       	mov    $0xffffffff,%eax
  402ec5:	eb 16                	jmp    402edd <init_driver+0x1d7>
  402ec7:	89 df                	mov    %ebx,%edi
  402ec9:	e8 82 de ff ff       	callq  400d50 <close@plt>
  402ece:	66 c7 45 00 4f 4b    	movw   $0x4b4f,0x0(%rbp)
  402ed4:	c6 45 02 00          	movb   $0x0,0x2(%rbp)
  402ed8:	b8 00 00 00 00       	mov    $0x0,%eax
  402edd:	48 8b 4c 24 18       	mov    0x18(%rsp),%rcx
  402ee2:	64 48 33 0c 25 28 00 	xor    %fs:0x28,%rcx
  402ee9:	00 00 
  402eeb:	74 05                	je     402ef2 <init_driver+0x1ec>
  402eed:	e8 1e de ff ff       	callq  400d10 <__stack_chk_fail@plt>
  402ef2:	48 83 c4 28          	add    $0x28,%rsp
  402ef6:	5b                   	pop    %rbx
  402ef7:	5d                   	pop    %rbp
  402ef8:	c3                   	retq   

0000000000402ef9 <driver_post>:
  402ef9:	53                   	push   %rbx
  402efa:	4c 89 cb             	mov    %r9,%rbx
  402efd:	45 85 c0             	test   %r8d,%r8d
  402f00:	74 27                	je     402f29 <driver_post+0x30>
  402f02:	48 89 ca             	mov    %rcx,%rdx
  402f05:	be e5 38 40 00       	mov    $0x4038e5,%esi
  402f0a:	bf 01 00 00 00       	mov    $0x1,%edi
  402f0f:	b8 00 00 00 00       	mov    $0x0,%eax
  402f14:	e8 07 df ff ff       	callq  400e20 <__printf_chk@plt>
  402f19:	66 c7 03 4f 4b       	movw   $0x4b4f,(%rbx)
  402f1e:	c6 43 02 00          	movb   $0x0,0x2(%rbx)
  402f22:	b8 00 00 00 00       	mov    $0x0,%eax
  402f27:	eb 3f                	jmp    402f68 <driver_post+0x6f>
  402f29:	48 85 ff             	test   %rdi,%rdi
  402f2c:	74 2c                	je     402f5a <driver_post+0x61>
  402f2e:	80 3f 00             	cmpb   $0x0,(%rdi)
  402f31:	74 27                	je     402f5a <driver_post+0x61>
  402f33:	48 83 ec 08          	sub    $0x8,%rsp
  402f37:	41 51                	push   %r9
  402f39:	49 89 c9             	mov    %rcx,%r9
  402f3c:	49 89 d0             	mov    %rdx,%r8
  402f3f:	48 89 f9             	mov    %rdi,%rcx
  402f42:	48 89 f2             	mov    %rsi,%rdx
  402f45:	be 50 00 00 00       	mov    $0x50,%esi
  402f4a:	bf 05 34 40 00       	mov    $0x403405,%edi
  402f4f:	e8 fe f5 ff ff       	callq  402552 <submitr>
  402f54:	48 83 c4 10          	add    $0x10,%rsp
  402f58:	eb 0e                	jmp    402f68 <driver_post+0x6f>
  402f5a:	66 c7 03 4f 4b       	movw   $0x4b4f,(%rbx)
  402f5f:	c6 43 02 00          	movb   $0x0,0x2(%rbx)
  402f63:	b8 00 00 00 00       	mov    $0x0,%eax
  402f68:	5b                   	pop    %rbx
  402f69:	c3                   	retq   

0000000000402f6a <check>:
  402f6a:	89 f8                	mov    %edi,%eax
  402f6c:	c1 e8 1c             	shr    $0x1c,%eax
  402f6f:	85 c0                	test   %eax,%eax
  402f71:	74 1d                	je     402f90 <check+0x26>
  402f73:	b9 00 00 00 00       	mov    $0x0,%ecx
  402f78:	eb 0b                	jmp    402f85 <check+0x1b>
  402f7a:	89 f8                	mov    %edi,%eax
  402f7c:	d3 e8                	shr    %cl,%eax
  402f7e:	3c 0a                	cmp    $0xa,%al
  402f80:	74 14                	je     402f96 <check+0x2c>
  402f82:	83 c1 08             	add    $0x8,%ecx
  402f85:	83 f9 1f             	cmp    $0x1f,%ecx
  402f88:	7e f0                	jle    402f7a <check+0x10>
  402f8a:	b8 01 00 00 00       	mov    $0x1,%eax
  402f8f:	c3                   	retq   
  402f90:	b8 00 00 00 00       	mov    $0x0,%eax
  402f95:	c3                   	retq   
  402f96:	b8 00 00 00 00       	mov    $0x0,%eax
  402f9b:	c3                   	retq   

0000000000402f9c <gencookie>:
  402f9c:	53                   	push   %rbx
  402f9d:	83 c7 01             	add    $0x1,%edi
  402fa0:	e8 1b dd ff ff       	callq  400cc0 <srandom@plt>
  402fa5:	e8 36 de ff ff       	callq  400de0 <random@plt>
  402faa:	89 c3                	mov    %eax,%ebx
  402fac:	89 c7                	mov    %eax,%edi
  402fae:	e8 b7 ff ff ff       	callq  402f6a <check>
  402fb3:	85 c0                	test   %eax,%eax
  402fb5:	74 ee                	je     402fa5 <gencookie+0x9>
  402fb7:	89 d8                	mov    %ebx,%eax
  402fb9:	5b                   	pop    %rbx
  402fba:	c3                   	retq   
  402fbb:	0f 1f 44 00 00       	nopl   0x0(%rax,%rax,1)

0000000000402fc0 <__libc_csu_init>:
  402fc0:	41 57                	push   %r15
  402fc2:	41 56                	push   %r14
  402fc4:	41 89 ff             	mov    %edi,%r15d
  402fc7:	41 55                	push   %r13
  402fc9:	41 54                	push   %r12
  402fcb:	4c 8d 25 2e 1e 20 00 	lea    0x201e2e(%rip),%r12        # 604e00 <__frame_dummy_init_array_entry>
  402fd2:	55                   	push   %rbp
  402fd3:	48 8d 2d 2e 1e 20 00 	lea    0x201e2e(%rip),%rbp        # 604e08 <__init_array_end>
  402fda:	53                   	push   %rbx
  402fdb:	49 89 f6             	mov    %rsi,%r14
  402fde:	49 89 d5             	mov    %rdx,%r13
  402fe1:	4c 29 e5             	sub    %r12,%rbp
  402fe4:	48 83 ec 08          	sub    $0x8,%rsp
  402fe8:	48 c1 fd 03          	sar    $0x3,%rbp
  402fec:	e8 77 dc ff ff       	callq  400c68 <_init>
  402ff1:	48 85 ed             	test   %rbp,%rbp
  402ff4:	74 20                	je     403016 <__libc_csu_init+0x56>
  402ff6:	31 db                	xor    %ebx,%ebx
  402ff8:	0f 1f 84 00 00 00 00 	nopl   0x0(%rax,%rax,1)
  402fff:	00 
  403000:	4c 89 ea             	mov    %r13,%rdx
  403003:	4c 89 f6             	mov    %r14,%rsi
  403006:	44 89 ff             	mov    %r15d,%edi
  403009:	41 ff 14 dc          	callq  *(%r12,%rbx,8)
  40300d:	48 83 c3 01          	add    $0x1,%rbx
  403011:	48 39 eb             	cmp    %rbp,%rbx
  403014:	75 ea                	jne    403000 <__libc_csu_init+0x40>
  403016:	48 83 c4 08          	add    $0x8,%rsp
  40301a:	5b                   	pop    %rbx
  40301b:	5d                   	pop    %rbp
  40301c:	41 5c                	pop    %r12
  40301e:	41 5d                	pop    %r13
  403020:	41 5e                	pop    %r14
  403022:	41 5f                	pop    %r15
  403024:	c3                   	retq   
  403025:	90                   	nop
  403026:	66 2e 0f 1f 84 00 00 	nopw   %cs:0x0(%rax,%rax,1)
  40302d:	00 00 00 

0000000000403030 <__libc_csu_fini>:
  403030:	f3 c3                	repz retq 

Disassembly of section .fini:

0000000000403034 <_fini>:
  403034:	48 83 ec 08          	sub    $0x8,%rsp
  403038:	48 83 c4 08          	add    $0x8,%rsp
  40303c:	c3                   	retq   
